
mainxxx:	file format mach-o arm64

Disassembly of section __TEXT,__text:

0000000100002a2c <_main>:
100002a2c: d10083ff    	sub	sp, sp, #32
100002a30: a9017bfd    	stp	x29, x30, [sp, #16]
100002a34: 910043fd    	add	x29, sp, #16
100002a38: 52800008    	mov	w8, #0
100002a3c: b9000be8    	str	w8, [sp, #8]
100002a40: b81fc3bf    	stur	wzr, [x29, #-4]
100002a44: 9400034e    	bl	0x10000377c <__Z19init_hot_fix_signalv>
100002a48: 94000063    	bl	0x100002bd4 <__Z14business_logicv>
100002a4c: b9400be0    	ldr	w0, [sp, #8]
100002a50: a9417bfd    	ldp	x29, x30, [sp, #16]
100002a54: 910083ff    	add	sp, sp, #32
100002a58: d65f03c0    	ret

0000000100002a5c <__Z13need_fix_funcv>:
100002a5c: d10083ff    	sub	sp, sp, #32
100002a60: a9017bfd    	stp	x29, x30, [sp, #16]
100002a64: 910043fd    	add	x29, sp, #16
100002a68: d0000000    	adrp	x0, 0x100004000 <__Z13need_fix_funcv+0x14>
100002a6c: f9403800    	ldr	x0, [x0, #112]
100002a70: b0000001    	adrp	x1, 0x100003000 <__Z13need_fix_funcv+0x18>
100002a74: 9137b021    	add	x1, x1, #3564
100002a78: 94000024    	bl	0x100002b08 <__ZNSt3__1lsB7v160006INS_11char_traitsIcEEEERNS_13basic_ostreamIcT_EES6_PKc>
100002a7c: 90000001    	adrp	x1, 0x100002000 <__Z13need_fix_funcv+0x20>
100002a80: 91297021    	add	x1, x1, #2652
100002a84: 94000448    	bl	0x100003ba4 <_strlen+0x100003ba4>
100002a88: 90000001    	adrp	x1, 0x100002000 <__Z13need_fix_funcv+0x2c>
100002a8c: 912df021    	add	x1, x1, #2940
100002a90: 94000030    	bl	0x100002b50 <__ZNSt3__113basic_ostreamIcNS_11char_traitsIcEEElsB7v160006EPFRS3_S4_E>
100002a94: 52800148    	mov	w8, #10
100002a98: b81fc3a8    	stur	w8, [x29, #-4]
100002a9c: b9000bff    	str	wzr, [sp, #8]
100002aa0: 14000001    	b	0x100002aa4 <__Z13need_fix_funcv+0x48>
100002aa4: b9400be8    	ldr	w8, [sp, #8]
100002aa8: b85fc3a9    	ldur	w9, [x29, #-4]
100002aac: 6b090108    	subs	w8, w8, w9
100002ab0: 1a9fb7e8    	cset	w8, ge
100002ab4: 37000228    	tbnz	w8, #0, 0x100002af8 <__Z13need_fix_funcv+0x9c>
100002ab8: 14000001    	b	0x100002abc <__Z13need_fix_funcv+0x60>
100002abc: d0000000    	adrp	x0, 0x100004000 <__Z13need_fix_funcv+0x68>
100002ac0: f9403800    	ldr	x0, [x0, #112]
100002ac4: b0000001    	adrp	x1, 0x100003000 <__Z13need_fix_funcv+0x6c>
100002ac8: 91381021    	add	x1, x1, #3588
100002acc: 9400000f    	bl	0x100002b08 <__ZNSt3__1lsB7v160006INS_11char_traitsIcEEEERNS_13basic_ostreamIcT_EES6_PKc>
100002ad0: b9400be1    	ldr	w1, [sp, #8]
100002ad4: 94000437    	bl	0x100003bb0 <_strlen+0x100003bb0>
100002ad8: 90000001    	adrp	x1, 0x100002000 <__Z13need_fix_funcv+0x7c>
100002adc: 912df021    	add	x1, x1, #2940
100002ae0: 9400001c    	bl	0x100002b50 <__ZNSt3__113basic_ostreamIcNS_11char_traitsIcEEElsB7v160006EPFRS3_S4_E>
100002ae4: 14000001    	b	0x100002ae8 <__Z13need_fix_funcv+0x8c>
100002ae8: b9400be8    	ldr	w8, [sp, #8]
100002aec: 11000508    	add	w8, w8, #1
100002af0: b9000be8    	str	w8, [sp, #8]
100002af4: 17ffffec    	b	0x100002aa4 <__Z13need_fix_funcv+0x48>
100002af8: 52800000    	mov	w0, #0
100002afc: a9417bfd    	ldp	x29, x30, [sp, #16]
100002b00: 910083ff    	add	sp, sp, #32
100002b04: d65f03c0    	ret

0000000100002b08 <__ZNSt3__1lsB7v160006INS_11char_traitsIcEEEERNS_13basic_ostreamIcT_EES6_PKc>:
100002b08: d100c3ff    	sub	sp, sp, #48
100002b0c: a9027bfd    	stp	x29, x30, [sp, #32]
100002b10: 910083fd    	add	x29, sp, #32
100002b14: f81f83a0    	stur	x0, [x29, #-8]
100002b18: f9000be1    	str	x1, [sp, #16]
100002b1c: f85f83a8    	ldur	x8, [x29, #-8]
100002b20: f90007e8    	str	x8, [sp, #8]
100002b24: f9400be8    	ldr	x8, [sp, #16]
100002b28: f90003e8    	str	x8, [sp]
100002b2c: f9400be0    	ldr	x0, [sp, #16]
100002b30: 94000408    	bl	0x100003b50 <_strlen+0x100003b50>
100002b34: f94003e1    	ldr	x1, [sp]
100002b38: aa0003e2    	mov	x2, x0
100002b3c: f94007e0    	ldr	x0, [sp, #8]
100002b40: 9400002c    	bl	0x100002bf0 <__ZNSt3__124__put_character_sequenceB7v160006IcNS_11char_traitsIcEEEERNS_13basic_ostreamIT_T0_EES7_PKS4_m>
100002b44: a9427bfd    	ldp	x29, x30, [sp, #32]
100002b48: 9100c3ff    	add	sp, sp, #48
100002b4c: d65f03c0    	ret

0000000100002b50 <__ZNSt3__113basic_ostreamIcNS_11char_traitsIcEEElsB7v160006EPFRS3_S4_E>:
100002b50: d10083ff    	sub	sp, sp, #32
100002b54: a9017bfd    	stp	x29, x30, [sp, #16]
100002b58: 910043fd    	add	x29, sp, #16
100002b5c: f90007e0    	str	x0, [sp, #8]
100002b60: f90003e1    	str	x1, [sp]
100002b64: f94007e0    	ldr	x0, [sp, #8]
100002b68: f94003e8    	ldr	x8, [sp]
100002b6c: d63f0100    	blr	x8
100002b70: a9417bfd    	ldp	x29, x30, [sp, #16]
100002b74: 910083ff    	add	sp, sp, #32
100002b78: d65f03c0    	ret

0000000100002b7c <__ZNSt3__14endlB7v160006IcNS_11char_traitsIcEEEERNS_13basic_ostreamIT_T0_EES7_>:
100002b7c: d10083ff    	sub	sp, sp, #32
100002b80: a9017bfd    	stp	x29, x30, [sp, #16]
100002b84: 910043fd    	add	x29, sp, #16
100002b88: f90007e0    	str	x0, [sp, #8]
100002b8c: f94007e8    	ldr	x8, [sp, #8]
100002b90: f90003e8    	str	x8, [sp]
100002b94: f94007e8    	ldr	x8, [sp, #8]
100002b98: f9400109    	ldr	x9, [x8]
100002b9c: f85e8129    	ldur	x9, [x9, #-24]
100002ba0: 8b090100    	add	x0, x8, x9
100002ba4: 52800141    	mov	w1, #10
100002ba8: 940002a3    	bl	0x100003634 <__ZNKSt3__19basic_iosIcNS_11char_traitsIcEEE5widenB7v160006Ec>
100002bac: aa0003e8    	mov	x8, x0
100002bb0: f94003e0    	ldr	x0, [sp]
100002bb4: 13001d01    	sxtb	w1, w8
100002bb8: 940003ef    	bl	0x100003b74 <_strlen+0x100003b74>
100002bbc: f94007e0    	ldr	x0, [sp, #8]
100002bc0: 940003f0    	bl	0x100003b80 <_strlen+0x100003b80>
100002bc4: f94007e0    	ldr	x0, [sp, #8]
100002bc8: a9417bfd    	ldp	x29, x30, [sp, #16]
100002bcc: 910083ff    	add	sp, sp, #32
100002bd0: d65f03c0    	ret

0000000100002bd4 <__Z14business_logicv>:
100002bd4: a9bf7bfd    	stp	x29, x30, [sp, #-16]!
100002bd8: 910003fd    	mov	x29, sp
100002bdc: 14000001    	b	0x100002be0 <__Z14business_logicv+0xc>
100002be0: 52800040    	mov	w0, #2
100002be4: 94000426    	bl	0x100003c7c <_strlen+0x100003c7c>
100002be8: 97ffff9d    	bl	0x100002a5c <__Z13need_fix_funcv>
100002bec: 17fffffd    	b	0x100002be0 <__Z14business_logicv+0xc>

0000000100002bf0 <__ZNSt3__124__put_character_sequenceB7v160006IcNS_11char_traitsIcEEEERNS_13basic_ostreamIT_T0_EES7_PKS4_m>:
100002bf0: d10283ff    	sub	sp, sp, #160
100002bf4: a9097bfd    	stp	x29, x30, [sp, #144]
100002bf8: 910243fd    	add	x29, sp, #144
100002bfc: f81f83a0    	stur	x0, [x29, #-8]
100002c00: f81f03a1    	stur	x1, [x29, #-16]
100002c04: f81e83a2    	stur	x2, [x29, #-24]
100002c08: f85f83a1    	ldur	x1, [x29, #-8]
100002c0c: d100a3a0    	sub	x0, x29, #40
100002c10: 940003df    	bl	0x100003b8c <_strlen+0x100003b8c>
100002c14: 14000001    	b	0x100002c18 <__ZNSt3__124__put_character_sequenceB7v160006IcNS_11char_traitsIcEEEERNS_13basic_ostreamIT_T0_EES7_PKS4_m+0x28>
100002c18: d100a3a0    	sub	x0, x29, #40
100002c1c: 94000084    	bl	0x100002e2c <__ZNKSt3__113basic_ostreamIcNS_11char_traitsIcEEE6sentrycvbB7v160006Ev>
100002c20: b90047e0    	str	w0, [sp, #68]
100002c24: 14000001    	b	0x100002c28 <__ZNSt3__124__put_character_sequenceB7v160006IcNS_11char_traitsIcEEEERNS_13basic_ostreamIT_T0_EES7_PKS4_m+0x38>
100002c28: b94047e8    	ldr	w8, [sp, #68]
100002c2c: 36000a48    	tbz	w8, #0, 0x100002d74 <__ZNSt3__124__put_character_sequenceB7v160006IcNS_11char_traitsIcEEEERNS_13basic_ostreamIT_T0_EES7_PKS4_m+0x184>
100002c30: 14000001    	b	0x100002c34 <__ZNSt3__124__put_character_sequenceB7v160006IcNS_11char_traitsIcEEEERNS_13basic_ostreamIT_T0_EES7_PKS4_m+0x44>
100002c34: f85f83a1    	ldur	x1, [x29, #-8]
100002c38: 910123e0    	add	x0, sp, #72
100002c3c: 94000115    	bl	0x100003090 <__ZNSt3__119ostreambuf_iteratorIcNS_11char_traitsIcEEEC1B7v160006ERNS_13basic_ostreamIcS2_EE>
100002c40: f85f03a8    	ldur	x8, [x29, #-16]
100002c44: f9001fe8    	str	x8, [sp, #56]
100002c48: f85f83a8    	ldur	x8, [x29, #-8]
100002c4c: f9400109    	ldr	x9, [x8]
100002c50: f85e8129    	ldur	x9, [x9, #-24]
100002c54: 8b090100    	add	x0, x8, x9
100002c58: 9400011b    	bl	0x1000030c4 <__ZNKSt3__18ios_base5flagsB7v160006Ev>
100002c5c: b90043e0    	str	w0, [sp, #64]
100002c60: 14000001    	b	0x100002c64 <__ZNSt3__124__put_character_sequenceB7v160006IcNS_11char_traitsIcEEEERNS_13basic_ostreamIT_T0_EES7_PKS4_m+0x74>
100002c64: b94043e8    	ldr	w8, [sp, #64]
100002c68: 52801609    	mov	w9, #176
100002c6c: 0a090108    	and	w8, w8, w9
100002c70: 71008108    	subs	w8, w8, #32
100002c74: 1a9f07e8    	cset	w8, ne
100002c78: 370000e8    	tbnz	w8, #0, 0x100002c94 <__ZNSt3__124__put_character_sequenceB7v160006IcNS_11char_traitsIcEEEERNS_13basic_ostreamIT_T0_EES7_PKS4_m+0xa4>
100002c7c: 14000001    	b	0x100002c80 <__ZNSt3__124__put_character_sequenceB7v160006IcNS_11char_traitsIcEEEERNS_13basic_ostreamIT_T0_EES7_PKS4_m+0x90>
100002c80: f85f03a8    	ldur	x8, [x29, #-16]
100002c84: f85e83a9    	ldur	x9, [x29, #-24]
100002c88: 8b090108    	add	x8, x8, x9
100002c8c: f9001be8    	str	x8, [sp, #48]
100002c90: 14000004    	b	0x100002ca0 <__ZNSt3__124__put_character_sequenceB7v160006IcNS_11char_traitsIcEEEERNS_13basic_ostreamIT_T0_EES7_PKS4_m+0xb0>
100002c94: f85f03a8    	ldur	x8, [x29, #-16]
100002c98: f9001be8    	str	x8, [sp, #48]
100002c9c: 14000001    	b	0x100002ca0 <__ZNSt3__124__put_character_sequenceB7v160006IcNS_11char_traitsIcEEEERNS_13basic_ostreamIT_T0_EES7_PKS4_m+0xb0>
100002ca0: f9401be8    	ldr	x8, [sp, #48]
100002ca4: f9000be8    	str	x8, [sp, #16]
100002ca8: f85f03a8    	ldur	x8, [x29, #-16]
100002cac: f85e83a9    	ldur	x9, [x29, #-24]
100002cb0: 8b090108    	add	x8, x8, x9
100002cb4: f9000fe8    	str	x8, [sp, #24]
100002cb8: f85f83a8    	ldur	x8, [x29, #-8]
100002cbc: f9400109    	ldr	x9, [x8]
100002cc0: f85e8129    	ldur	x9, [x9, #-24]
100002cc4: 8b090108    	add	x8, x8, x9
100002cc8: f90013e8    	str	x8, [sp, #32]
100002ccc: f85f83a8    	ldur	x8, [x29, #-8]
100002cd0: f9400109    	ldr	x9, [x8]
100002cd4: f85e8129    	ldur	x9, [x9, #-24]
100002cd8: 8b090100    	add	x0, x8, x9
100002cdc: 94000100    	bl	0x1000030dc <__ZNKSt3__19basic_iosIcNS_11char_traitsIcEEE4fillB7v160006Ev>
100002ce0: b9002fe0    	str	w0, [sp, #44]
100002ce4: 14000001    	b	0x100002ce8 <__ZNSt3__124__put_character_sequenceB7v160006IcNS_11char_traitsIcEEEERNS_13basic_ostreamIT_T0_EES7_PKS4_m+0xf8>
100002ce8: b9402fe8    	ldr	w8, [sp, #44]
100002cec: f94013e4    	ldr	x4, [sp, #32]
100002cf0: f9400fe3    	ldr	x3, [sp, #24]
100002cf4: f9400be2    	ldr	x2, [sp, #16]
100002cf8: f9401fe1    	ldr	x1, [sp, #56]
100002cfc: f94027e0    	ldr	x0, [sp, #72]
100002d00: 13001d05    	sxtb	w5, w8
100002d04: 94000051    	bl	0x100002e48 <__ZNSt3__116__pad_and_outputB7v160006IcNS_11char_traitsIcEEEENS_19ostreambuf_iteratorIT_T0_EES6_PKS4_S8_S8_RNS_8ios_baseES4_>
100002d08: f90007e0    	str	x0, [sp, #8]
100002d0c: 14000001    	b	0x100002d10 <__ZNSt3__124__put_character_sequenceB7v160006IcNS_11char_traitsIcEEEERNS_13basic_ostreamIT_T0_EES7_PKS4_m+0x120>
100002d10: f94007e8    	ldr	x8, [sp, #8]
100002d14: d10103a0    	sub	x0, x29, #64
100002d18: f81c03a8    	stur	x8, [x29, #-64]
100002d1c: 94000109    	bl	0x100003140 <__ZNKSt3__119ostreambuf_iteratorIcNS_11char_traitsIcEEE6failedB7v160006Ev>
100002d20: 36000280    	tbz	w0, #0, 0x100002d70 <__ZNSt3__124__put_character_sequenceB7v160006IcNS_11char_traitsIcEEEERNS_13basic_ostreamIT_T0_EES7_PKS4_m+0x180>
100002d24: 14000001    	b	0x100002d28 <__ZNSt3__124__put_character_sequenceB7v160006IcNS_11char_traitsIcEEEERNS_13basic_ostreamIT_T0_EES7_PKS4_m+0x138>
100002d28: f85f83a8    	ldur	x8, [x29, #-8]
100002d2c: f9400109    	ldr	x9, [x8]
100002d30: f85e8129    	ldur	x9, [x9, #-24]
100002d34: 8b090100    	add	x0, x8, x9
100002d38: 528000a1    	mov	w1, #5
100002d3c: 9400010a    	bl	0x100003164 <__ZNSt3__19basic_iosIcNS_11char_traitsIcEEE8setstateB7v160006Ej>
100002d40: 14000001    	b	0x100002d44 <__ZNSt3__124__put_character_sequenceB7v160006IcNS_11char_traitsIcEEEERNS_13basic_ostreamIT_T0_EES7_PKS4_m+0x154>
100002d44: 1400000b    	b	0x100002d70 <__ZNSt3__124__put_character_sequenceB7v160006IcNS_11char_traitsIcEEEERNS_13basic_ostreamIT_T0_EES7_PKS4_m+0x180>
100002d48: f81d03a0    	stur	x0, [x29, #-48]
100002d4c: aa0103e8    	mov	x8, x1
100002d50: b81cc3a8    	stur	w8, [x29, #-52]
100002d54: 1400000d    	b	0x100002d88 <__ZNSt3__124__put_character_sequenceB7v160006IcNS_11char_traitsIcEEEERNS_13basic_ostreamIT_T0_EES7_PKS4_m+0x198>
100002d58: f81d03a0    	stur	x0, [x29, #-48]
100002d5c: aa0103e8    	mov	x8, x1
100002d60: b81cc3a8    	stur	w8, [x29, #-52]
100002d64: d100a3a0    	sub	x0, x29, #40
100002d68: 9400038c    	bl	0x100003b98 <_strlen+0x100003b98>
100002d6c: 14000006    	b	0x100002d84 <__ZNSt3__124__put_character_sequenceB7v160006IcNS_11char_traitsIcEEEERNS_13basic_ostreamIT_T0_EES7_PKS4_m+0x194>
100002d70: 14000001    	b	0x100002d74 <__ZNSt3__124__put_character_sequenceB7v160006IcNS_11char_traitsIcEEEERNS_13basic_ostreamIT_T0_EES7_PKS4_m+0x184>
100002d74: d100a3a0    	sub	x0, x29, #40
100002d78: 94000388    	bl	0x100003b98 <_strlen+0x100003b98>
100002d7c: 14000001    	b	0x100002d80 <__ZNSt3__124__put_character_sequenceB7v160006IcNS_11char_traitsIcEEEERNS_13basic_ostreamIT_T0_EES7_PKS4_m+0x190>
100002d80: 1400000c    	b	0x100002db0 <__ZNSt3__124__put_character_sequenceB7v160006IcNS_11char_traitsIcEEEERNS_13basic_ostreamIT_T0_EES7_PKS4_m+0x1c0>
100002d84: 14000001    	b	0x100002d88 <__ZNSt3__124__put_character_sequenceB7v160006IcNS_11char_traitsIcEEEERNS_13basic_ostreamIT_T0_EES7_PKS4_m+0x198>
100002d88: f85d03a0    	ldur	x0, [x29, #-48]
100002d8c: 94000398    	bl	0x100003bec <_strlen+0x100003bec>
100002d90: f85f83a8    	ldur	x8, [x29, #-8]
100002d94: f9400109    	ldr	x9, [x8]
100002d98: f85e8129    	ldur	x9, [x9, #-24]
100002d9c: 8b090100    	add	x0, x8, x9
100002da0: 9400038a    	bl	0x100003bc8 <_strlen+0x100003bc8>
100002da4: 14000001    	b	0x100002da8 <__ZNSt3__124__put_character_sequenceB7v160006IcNS_11char_traitsIcEEEERNS_13basic_ostreamIT_T0_EES7_PKS4_m+0x1b8>
100002da8: 94000397    	bl	0x100003c04 <_strlen+0x100003c04>
100002dac: 14000001    	b	0x100002db0 <__ZNSt3__124__put_character_sequenceB7v160006IcNS_11char_traitsIcEEEERNS_13basic_ostreamIT_T0_EES7_PKS4_m+0x1c0>
100002db0: f85f83a0    	ldur	x0, [x29, #-8]
100002db4: a9497bfd    	ldp	x29, x30, [sp, #144]
100002db8: 910283ff    	add	sp, sp, #160
100002dbc: d65f03c0    	ret
100002dc0: f81d03a0    	stur	x0, [x29, #-48]
100002dc4: aa0103e8    	mov	x8, x1
100002dc8: b81cc3a8    	stur	w8, [x29, #-52]
100002dcc: 9400038e    	bl	0x100003c04 <_strlen+0x100003c04>
100002dd0: 14000001    	b	0x100002dd4 <__ZNSt3__124__put_character_sequenceB7v160006IcNS_11char_traitsIcEEEERNS_13basic_ostreamIT_T0_EES7_PKS4_m+0x1e4>
100002dd4: 14000001    	b	0x100002dd8 <__ZNSt3__124__put_character_sequenceB7v160006IcNS_11char_traitsIcEEEERNS_13basic_ostreamIT_T0_EES7_PKS4_m+0x1e8>
100002dd8: f85d03a0    	ldur	x0, [x29, #-48]
100002ddc: 9400034e    	bl	0x100003b14 <_strlen+0x100003b14>
100002de0: 940000ec    	bl	0x100003190 <___clang_call_terminate>

0000000100002de4 <__ZNSt3__111char_traitsIcE6lengthEPKc>:
100002de4: d100c3ff    	sub	sp, sp, #48
100002de8: a9027bfd    	stp	x29, x30, [sp, #32]
100002dec: 910083fd    	add	x29, sp, #32
100002df0: f81f83a0    	stur	x0, [x29, #-8]
100002df4: f85f83a0    	ldur	x0, [x29, #-8]
100002df8: 94000258    	bl	0x100003758 <__ZNSt3__118__constexpr_strlenB7v160006EPKc>
100002dfc: f90003e0    	str	x0, [sp]
100002e00: 14000001    	b	0x100002e04 <__ZNSt3__111char_traitsIcE6lengthEPKc+0x20>
100002e04: f94003e0    	ldr	x0, [sp]
100002e08: a9427bfd    	ldp	x29, x30, [sp, #32]
100002e0c: 9100c3ff    	add	sp, sp, #48
100002e10: d65f03c0    	ret
100002e14: f9000be0    	str	x0, [sp, #16]
100002e18: aa0103e8    	mov	x8, x1
100002e1c: b9000fe8    	str	w8, [sp, #12]
100002e20: 14000001    	b	0x100002e24 <__ZNSt3__111char_traitsIcE6lengthEPKc+0x40>
100002e24: f9400be0    	ldr	x0, [sp, #16]
100002e28: 94000374    	bl	0x100003bf8 <_strlen+0x100003bf8>

0000000100002e2c <__ZNKSt3__113basic_ostreamIcNS_11char_traitsIcEEE6sentrycvbB7v160006Ev>:
100002e2c: d10043ff    	sub	sp, sp, #16
100002e30: f90007e0    	str	x0, [sp, #8]
100002e34: f94007e8    	ldr	x8, [sp, #8]
100002e38: 39400108    	ldrb	w8, [x8]
100002e3c: 12000100    	and	w0, w8, #0x1
100002e40: 910043ff    	add	sp, sp, #16
100002e44: d65f03c0    	ret

0000000100002e48 <__ZNSt3__116__pad_and_outputB7v160006IcNS_11char_traitsIcEEEENS_19ostreambuf_iteratorIT_T0_EES6_PKS4_S8_S8_RNS_8ios_baseES4_>:
100002e48: d10283ff    	sub	sp, sp, #160
100002e4c: a9097bfd    	stp	x29, x30, [sp, #144]
100002e50: 910243fd    	add	x29, sp, #144
100002e54: f81f03a0    	stur	x0, [x29, #-16]
100002e58: f81e83a1    	stur	x1, [x29, #-24]
100002e5c: f81e03a2    	stur	x2, [x29, #-32]
100002e60: f81d83a3    	stur	x3, [x29, #-40]
100002e64: f81d03a4    	stur	x4, [x29, #-48]
100002e68: 381cf3a5    	sturb	w5, [x29, #-49]
100002e6c: f85f03a8    	ldur	x8, [x29, #-16]
100002e70: f1000108    	subs	x8, x8, #0
100002e74: 1a9f07e8    	cset	w8, ne
100002e78: 370000a8    	tbnz	w8, #0, 0x100002e8c <__ZNSt3__116__pad_and_outputB7v160006IcNS_11char_traitsIcEEEENS_19ostreambuf_iteratorIT_T0_EES6_PKS4_S8_S8_RNS_8ios_baseES4_+0x44>
100002e7c: 14000001    	b	0x100002e80 <__ZNSt3__116__pad_and_outputB7v160006IcNS_11char_traitsIcEEEENS_19ostreambuf_iteratorIT_T0_EES6_PKS4_S8_S8_RNS_8ios_baseES4_+0x38>
100002e80: f85f03a8    	ldur	x8, [x29, #-16]
100002e84: f81f83a8    	stur	x8, [x29, #-8]
100002e88: 1400007b    	b	0x100003074 <__ZNSt3__116__pad_and_outputB7v160006IcNS_11char_traitsIcEEEENS_19ostreambuf_iteratorIT_T0_EES6_PKS4_S8_S8_RNS_8ios_baseES4_+0x22c>
100002e8c: f85d83a8    	ldur	x8, [x29, #-40]
100002e90: f85e83a9    	ldur	x9, [x29, #-24]
100002e94: eb090108    	subs	x8, x8, x9
100002e98: f81c03a8    	stur	x8, [x29, #-64]
100002e9c: f85d03a0    	ldur	x0, [x29, #-48]
100002ea0: 940000bf    	bl	0x10000319c <__ZNKSt3__18ios_base5widthB7v160006Ev>
100002ea4: f90027e0    	str	x0, [sp, #72]
100002ea8: f94027e8    	ldr	x8, [sp, #72]
100002eac: f85c03a9    	ldur	x9, [x29, #-64]
100002eb0: eb090108    	subs	x8, x8, x9
100002eb4: 1a9fc7e8    	cset	w8, le
100002eb8: 370000e8    	tbnz	w8, #0, 0x100002ed4 <__ZNSt3__116__pad_and_outputB7v160006IcNS_11char_traitsIcEEEENS_19ostreambuf_iteratorIT_T0_EES6_PKS4_S8_S8_RNS_8ios_baseES4_+0x8c>
100002ebc: 14000001    	b	0x100002ec0 <__ZNSt3__116__pad_and_outputB7v160006IcNS_11char_traitsIcEEEENS_19ostreambuf_iteratorIT_T0_EES6_PKS4_S8_S8_RNS_8ios_baseES4_+0x78>
100002ec0: f85c03a9    	ldur	x9, [x29, #-64]
100002ec4: f94027e8    	ldr	x8, [sp, #72]
100002ec8: eb090108    	subs	x8, x8, x9
100002ecc: f90027e8    	str	x8, [sp, #72]
100002ed0: 14000003    	b	0x100002edc <__ZNSt3__116__pad_and_outputB7v160006IcNS_11char_traitsIcEEEENS_19ostreambuf_iteratorIT_T0_EES6_PKS4_S8_S8_RNS_8ios_baseES4_+0x94>
100002ed4: f90027ff    	str	xzr, [sp, #72]
100002ed8: 14000001    	b	0x100002edc <__ZNSt3__116__pad_and_outputB7v160006IcNS_11char_traitsIcEEEENS_19ostreambuf_iteratorIT_T0_EES6_PKS4_S8_S8_RNS_8ios_baseES4_+0x94>
100002edc: f85e03a8    	ldur	x8, [x29, #-32]
100002ee0: f85e83a9    	ldur	x9, [x29, #-24]
100002ee4: eb090108    	subs	x8, x8, x9
100002ee8: f90023e8    	str	x8, [sp, #64]
100002eec: f94023e8    	ldr	x8, [sp, #64]
100002ef0: f1000108    	subs	x8, x8, #0
100002ef4: 1a9fc7e8    	cset	w8, le
100002ef8: 37000208    	tbnz	w8, #0, 0x100002f38 <__ZNSt3__116__pad_and_outputB7v160006IcNS_11char_traitsIcEEEENS_19ostreambuf_iteratorIT_T0_EES6_PKS4_S8_S8_RNS_8ios_baseES4_+0xf0>
100002efc: 14000001    	b	0x100002f00 <__ZNSt3__116__pad_and_outputB7v160006IcNS_11char_traitsIcEEEENS_19ostreambuf_iteratorIT_T0_EES6_PKS4_S8_S8_RNS_8ios_baseES4_+0xb8>
100002f00: f85f03a0    	ldur	x0, [x29, #-16]
100002f04: f85e83a1    	ldur	x1, [x29, #-24]
100002f08: f94023e2    	ldr	x2, [sp, #64]
100002f0c: 940000aa    	bl	0x1000031b4 <__ZNSt3__115basic_streambufIcNS_11char_traitsIcEEE5sputnB7v160006EPKcl>
100002f10: f94023e8    	ldr	x8, [sp, #64]
100002f14: eb080008    	subs	x8, x0, x8
100002f18: 1a9f17e8    	cset	w8, eq
100002f1c: 370000c8    	tbnz	w8, #0, 0x100002f34 <__ZNSt3__116__pad_and_outputB7v160006IcNS_11char_traitsIcEEEENS_19ostreambuf_iteratorIT_T0_EES6_PKS4_S8_S8_RNS_8ios_baseES4_+0xec>
100002f20: 14000001    	b	0x100002f24 <__ZNSt3__116__pad_and_outputB7v160006IcNS_11char_traitsIcEEEENS_19ostreambuf_iteratorIT_T0_EES6_PKS4_S8_S8_RNS_8ios_baseES4_+0xdc>
100002f24: f81f03bf    	stur	xzr, [x29, #-16]
100002f28: f85f03a8    	ldur	x8, [x29, #-16]
100002f2c: f81f83a8    	stur	x8, [x29, #-8]
100002f30: 14000051    	b	0x100003074 <__ZNSt3__116__pad_and_outputB7v160006IcNS_11char_traitsIcEEEENS_19ostreambuf_iteratorIT_T0_EES6_PKS4_S8_S8_RNS_8ios_baseES4_+0x22c>
100002f34: 14000001    	b	0x100002f38 <__ZNSt3__116__pad_and_outputB7v160006IcNS_11char_traitsIcEEEENS_19ostreambuf_iteratorIT_T0_EES6_PKS4_S8_S8_RNS_8ios_baseES4_+0xf0>
100002f38: f94027e8    	ldr	x8, [sp, #72]
100002f3c: f1000108    	subs	x8, x8, #0
100002f40: 1a9fc7e8    	cset	w8, le
100002f44: 370005e8    	tbnz	w8, #0, 0x100003000 <__ZNSt3__116__pad_and_outputB7v160006IcNS_11char_traitsIcEEEENS_19ostreambuf_iteratorIT_T0_EES6_PKS4_S8_S8_RNS_8ios_baseES4_+0x1b8>
100002f48: 14000001    	b	0x100002f4c <__ZNSt3__116__pad_and_outputB7v160006IcNS_11char_traitsIcEEEENS_19ostreambuf_iteratorIT_T0_EES6_PKS4_S8_S8_RNS_8ios_baseES4_+0x104>
100002f4c: f94027e1    	ldr	x1, [sp, #72]
100002f50: 38dcf3a2    	ldursb	w2, [x29, #-49]
100002f54: 9100a3e0    	add	x0, sp, #40
100002f58: f90003e0    	str	x0, [sp]
100002f5c: 940000a5    	bl	0x1000031f0 <__ZNSt3__112basic_stringIcNS_11char_traitsIcEENS_9allocatorIcEEEC1B7v160006Emc>
100002f60: f94003e0    	ldr	x0, [sp]
100002f64: f85f03a8    	ldur	x8, [x29, #-16]
100002f68: f90007e8    	str	x8, [sp, #8]
100002f6c: 940000b0    	bl	0x10000322c <__ZNKSt3__112basic_stringIcNS_11char_traitsIcEENS_9allocatorIcEEE4dataB7v160006Ev>
100002f70: aa0003e1    	mov	x1, x0
100002f74: f94007e0    	ldr	x0, [sp, #8]
100002f78: f94027e2    	ldr	x2, [sp, #72]
100002f7c: 9400008e    	bl	0x1000031b4 <__ZNSt3__115basic_streambufIcNS_11char_traitsIcEEE5sputnB7v160006EPKcl>
100002f80: f9000be0    	str	x0, [sp, #16]
100002f84: 14000001    	b	0x100002f88 <__ZNSt3__116__pad_and_outputB7v160006IcNS_11char_traitsIcEEEENS_19ostreambuf_iteratorIT_T0_EES6_PKS4_S8_S8_RNS_8ios_baseES4_+0x140>
100002f88: f9400be8    	ldr	x8, [sp, #16]
100002f8c: f94027e9    	ldr	x9, [sp, #72]
100002f90: eb090108    	subs	x8, x8, x9
100002f94: 1a9f17e8    	cset	w8, eq
100002f98: 370001c8    	tbnz	w8, #0, 0x100002fd0 <__ZNSt3__116__pad_and_outputB7v160006IcNS_11char_traitsIcEEEENS_19ostreambuf_iteratorIT_T0_EES6_PKS4_S8_S8_RNS_8ios_baseES4_+0x188>
100002f9c: 14000001    	b	0x100002fa0 <__ZNSt3__116__pad_and_outputB7v160006IcNS_11char_traitsIcEEEENS_19ostreambuf_iteratorIT_T0_EES6_PKS4_S8_S8_RNS_8ios_baseES4_+0x158>
100002fa0: f81f03bf    	stur	xzr, [x29, #-16]
100002fa4: f85f03a8    	ldur	x8, [x29, #-16]
100002fa8: f81f83a8    	stur	x8, [x29, #-8]
100002fac: 52800028    	mov	w8, #1
100002fb0: b9001be8    	str	w8, [sp, #24]
100002fb4: 14000009    	b	0x100002fd8 <__ZNSt3__116__pad_and_outputB7v160006IcNS_11char_traitsIcEEEENS_19ostreambuf_iteratorIT_T0_EES6_PKS4_S8_S8_RNS_8ios_baseES4_+0x190>
100002fb8: f90013e0    	str	x0, [sp, #32]
100002fbc: aa0103e8    	mov	x8, x1
100002fc0: b9001fe8    	str	w8, [sp, #28]
100002fc4: 9100a3e0    	add	x0, sp, #40
100002fc8: 940002e8    	bl	0x100003b68 <_strlen+0x100003b68>
100002fcc: 1400000c    	b	0x100002ffc <__ZNSt3__116__pad_and_outputB7v160006IcNS_11char_traitsIcEEEENS_19ostreambuf_iteratorIT_T0_EES6_PKS4_S8_S8_RNS_8ios_baseES4_+0x1b4>
100002fd0: b9001bff    	str	wzr, [sp, #24]
100002fd4: 14000001    	b	0x100002fd8 <__ZNSt3__116__pad_and_outputB7v160006IcNS_11char_traitsIcEEEENS_19ostreambuf_iteratorIT_T0_EES6_PKS4_S8_S8_RNS_8ios_baseES4_+0x190>
100002fd8: 9100a3e0    	add	x0, sp, #40
100002fdc: 940002e3    	bl	0x100003b68 <_strlen+0x100003b68>
100002fe0: b9401be8    	ldr	w8, [sp, #24]
100002fe4: 71000108    	subs	w8, w8, #0
100002fe8: 1a9f17e8    	cset	w8, eq
100002fec: 37000068    	tbnz	w8, #0, 0x100002ff8 <__ZNSt3__116__pad_and_outputB7v160006IcNS_11char_traitsIcEEEENS_19ostreambuf_iteratorIT_T0_EES6_PKS4_S8_S8_RNS_8ios_baseES4_+0x1b0>
100002ff0: 14000001    	b	0x100002ff4 <__ZNSt3__116__pad_and_outputB7v160006IcNS_11char_traitsIcEEEENS_19ostreambuf_iteratorIT_T0_EES6_PKS4_S8_S8_RNS_8ios_baseES4_+0x1ac>
100002ff4: 14000020    	b	0x100003074 <__ZNSt3__116__pad_and_outputB7v160006IcNS_11char_traitsIcEEEENS_19ostreambuf_iteratorIT_T0_EES6_PKS4_S8_S8_RNS_8ios_baseES4_+0x22c>
100002ff8: 14000002    	b	0x100003000 <__ZNSt3__116__pad_and_outputB7v160006IcNS_11char_traitsIcEEEENS_19ostreambuf_iteratorIT_T0_EES6_PKS4_S8_S8_RNS_8ios_baseES4_+0x1b8>
100002ffc: 14000022    	b	0x100003084 <__ZNSt3__116__pad_and_outputB7v160006IcNS_11char_traitsIcEEEENS_19ostreambuf_iteratorIT_T0_EES6_PKS4_S8_S8_RNS_8ios_baseES4_+0x23c>
100003000: f85d83a8    	ldur	x8, [x29, #-40]
100003004: f85e03a9    	ldur	x9, [x29, #-32]
100003008: eb090108    	subs	x8, x8, x9
10000300c: f90023e8    	str	x8, [sp, #64]
100003010: f94023e8    	ldr	x8, [sp, #64]
100003014: f1000108    	subs	x8, x8, #0
100003018: 1a9fc7e8    	cset	w8, le
10000301c: 37000208    	tbnz	w8, #0, 0x10000305c <__ZNSt3__116__pad_and_outputB7v160006IcNS_11char_traitsIcEEEENS_19ostreambuf_iteratorIT_T0_EES6_PKS4_S8_S8_RNS_8ios_baseES4_+0x214>
100003020: 14000001    	b	0x100003024 <__ZNSt3__116__pad_and_outputB7v160006IcNS_11char_traitsIcEEEENS_19ostreambuf_iteratorIT_T0_EES6_PKS4_S8_S8_RNS_8ios_baseES4_+0x1dc>
100003024: f85f03a0    	ldur	x0, [x29, #-16]
100003028: f85e03a1    	ldur	x1, [x29, #-32]
10000302c: f94023e2    	ldr	x2, [sp, #64]
100003030: 94000061    	bl	0x1000031b4 <__ZNSt3__115basic_streambufIcNS_11char_traitsIcEEE5sputnB7v160006EPKcl>
100003034: f94023e8    	ldr	x8, [sp, #64]
100003038: eb080008    	subs	x8, x0, x8
10000303c: 1a9f17e8    	cset	w8, eq
100003040: 370000c8    	tbnz	w8, #0, 0x100003058 <__ZNSt3__116__pad_and_outputB7v160006IcNS_11char_traitsIcEEEENS_19ostreambuf_iteratorIT_T0_EES6_PKS4_S8_S8_RNS_8ios_baseES4_+0x210>
100003044: 14000001    	b	0x100003048 <__ZNSt3__116__pad_and_outputB7v160006IcNS_11char_traitsIcEEEENS_19ostreambuf_iteratorIT_T0_EES6_PKS4_S8_S8_RNS_8ios_baseES4_+0x200>
100003048: f81f03bf    	stur	xzr, [x29, #-16]
10000304c: f85f03a8    	ldur	x8, [x29, #-16]
100003050: f81f83a8    	stur	x8, [x29, #-8]
100003054: 14000008    	b	0x100003074 <__ZNSt3__116__pad_and_outputB7v160006IcNS_11char_traitsIcEEEENS_19ostreambuf_iteratorIT_T0_EES6_PKS4_S8_S8_RNS_8ios_baseES4_+0x22c>
100003058: 14000001    	b	0x10000305c <__ZNSt3__116__pad_and_outputB7v160006IcNS_11char_traitsIcEEEENS_19ostreambuf_iteratorIT_T0_EES6_PKS4_S8_S8_RNS_8ios_baseES4_+0x214>
10000305c: f85d03a0    	ldur	x0, [x29, #-48]
100003060: d2800001    	mov	x1, #0
100003064: 9400007c    	bl	0x100003254 <__ZNSt3__18ios_base5widthB7v160006El>
100003068: f85f03a8    	ldur	x8, [x29, #-16]
10000306c: f81f83a8    	stur	x8, [x29, #-8]
100003070: 14000001    	b	0x100003074 <__ZNSt3__116__pad_and_outputB7v160006IcNS_11char_traitsIcEEEENS_19ostreambuf_iteratorIT_T0_EES6_PKS4_S8_S8_RNS_8ios_baseES4_+0x22c>
100003074: f85f83a0    	ldur	x0, [x29, #-8]
100003078: a9497bfd    	ldp	x29, x30, [sp, #144]
10000307c: 910283ff    	add	sp, sp, #160
100003080: d65f03c0    	ret
100003084: f94013e0    	ldr	x0, [sp, #32]
100003088: 940002a3    	bl	0x100003b14 <_strlen+0x100003b14>
10000308c: 94000041    	bl	0x100003190 <___clang_call_terminate>

0000000100003090 <__ZNSt3__119ostreambuf_iteratorIcNS_11char_traitsIcEEEC1B7v160006ERNS_13basic_ostreamIcS2_EE>:
100003090: d100c3ff    	sub	sp, sp, #48
100003094: a9027bfd    	stp	x29, x30, [sp, #32]
100003098: 910083fd    	add	x29, sp, #32
10000309c: f81f83a0    	stur	x0, [x29, #-8]
1000030a0: f9000be1    	str	x1, [sp, #16]
1000030a4: f85f83a0    	ldur	x0, [x29, #-8]
1000030a8: f90007e0    	str	x0, [sp, #8]
1000030ac: f9400be1    	ldr	x1, [sp, #16]
1000030b0: 9400012c    	bl	0x100003560 <__ZNSt3__119ostreambuf_iteratorIcNS_11char_traitsIcEEEC2B7v160006ERNS_13basic_ostreamIcS2_EE>
1000030b4: f94007e0    	ldr	x0, [sp, #8]
1000030b8: a9427bfd    	ldp	x29, x30, [sp, #32]
1000030bc: 9100c3ff    	add	sp, sp, #48
1000030c0: d65f03c0    	ret

00000001000030c4 <__ZNKSt3__18ios_base5flagsB7v160006Ev>:
1000030c4: d10043ff    	sub	sp, sp, #16
1000030c8: f90007e0    	str	x0, [sp, #8]
1000030cc: f94007e8    	ldr	x8, [sp, #8]
1000030d0: b9400900    	ldr	w0, [x8, #8]
1000030d4: 910043ff    	add	sp, sp, #16
1000030d8: d65f03c0    	ret

00000001000030dc <__ZNKSt3__19basic_iosIcNS_11char_traitsIcEEE4fillB7v160006Ev>:
1000030dc: d10083ff    	sub	sp, sp, #32
1000030e0: a9017bfd    	stp	x29, x30, [sp, #16]
1000030e4: 910043fd    	add	x29, sp, #16
1000030e8: f90007e0    	str	x0, [sp, #8]
1000030ec: f94007e8    	ldr	x8, [sp, #8]
1000030f0: f90003e8    	str	x8, [sp]
1000030f4: 94000294    	bl	0x100003b44 <_strlen+0x100003b44>
1000030f8: f94003e8    	ldr	x8, [sp]
1000030fc: b9409101    	ldr	w1, [x8, #144]
100003100: 9400028e    	bl	0x100003b38 <_strlen+0x100003b38>
100003104: 36000120    	tbz	w0, #0, 0x100003128 <__ZNKSt3__19basic_iosIcNS_11char_traitsIcEEE4fillB7v160006Ev+0x4c>
100003108: 14000001    	b	0x10000310c <__ZNKSt3__19basic_iosIcNS_11char_traitsIcEEE4fillB7v160006Ev+0x30>
10000310c: f94003e0    	ldr	x0, [sp]
100003110: 52800401    	mov	w1, #32
100003114: 94000148    	bl	0x100003634 <__ZNKSt3__19basic_iosIcNS_11char_traitsIcEEE5widenB7v160006Ec>
100003118: f94003e9    	ldr	x9, [sp]
10000311c: 13001c08    	sxtb	w8, w0
100003120: b9009128    	str	w8, [x9, #144]
100003124: 14000001    	b	0x100003128 <__ZNKSt3__19basic_iosIcNS_11char_traitsIcEEE4fillB7v160006Ev+0x4c>
100003128: f94003e8    	ldr	x8, [sp]
10000312c: b9409108    	ldr	w8, [x8, #144]
100003130: 13001d00    	sxtb	w0, w8
100003134: a9417bfd    	ldp	x29, x30, [sp, #16]
100003138: 910083ff    	add	sp, sp, #32
10000313c: d65f03c0    	ret

0000000100003140 <__ZNKSt3__119ostreambuf_iteratorIcNS_11char_traitsIcEEE6failedB7v160006Ev>:
100003140: d10043ff    	sub	sp, sp, #16
100003144: f90007e0    	str	x0, [sp, #8]
100003148: f94007e8    	ldr	x8, [sp, #8]
10000314c: f9400108    	ldr	x8, [x8]
100003150: f1000108    	subs	x8, x8, #0
100003154: 1a9f17e8    	cset	w8, eq
100003158: 12000100    	and	w0, w8, #0x1
10000315c: 910043ff    	add	sp, sp, #16
100003160: d65f03c0    	ret

0000000100003164 <__ZNSt3__19basic_iosIcNS_11char_traitsIcEEE8setstateB7v160006Ej>:
100003164: d10083ff    	sub	sp, sp, #32
100003168: a9017bfd    	stp	x29, x30, [sp, #16]
10000316c: 910043fd    	add	x29, sp, #16
100003170: f90007e0    	str	x0, [sp, #8]
100003174: b90007e1    	str	w1, [sp, #4]
100003178: f94007e0    	ldr	x0, [sp, #8]
10000317c: b94007e1    	ldr	w1, [sp, #4]
100003180: 94000169    	bl	0x100003724 <__ZNSt3__18ios_base8setstateB7v160006Ej>
100003184: a9417bfd    	ldp	x29, x30, [sp, #16]
100003188: 910083ff    	add	sp, sp, #32
10000318c: d65f03c0    	ret

0000000100003190 <___clang_call_terminate>:
100003190: a9bf7bfd    	stp	x29, x30, [sp, #-16]!
100003194: 94000296    	bl	0x100003bec <_strlen+0x100003bec>
100003198: 94000292    	bl	0x100003be0 <_strlen+0x100003be0>

000000010000319c <__ZNKSt3__18ios_base5widthB7v160006Ev>:
10000319c: d10043ff    	sub	sp, sp, #16
1000031a0: f90007e0    	str	x0, [sp, #8]
1000031a4: f94007e8    	ldr	x8, [sp, #8]
1000031a8: f9400d00    	ldr	x0, [x8, #24]
1000031ac: 910043ff    	add	sp, sp, #16
1000031b0: d65f03c0    	ret

00000001000031b4 <__ZNSt3__115basic_streambufIcNS_11char_traitsIcEEE5sputnB7v160006EPKcl>:
1000031b4: d100c3ff    	sub	sp, sp, #48
1000031b8: a9027bfd    	stp	x29, x30, [sp, #32]
1000031bc: 910083fd    	add	x29, sp, #32
1000031c0: f81f83a0    	stur	x0, [x29, #-8]
1000031c4: f9000be1    	str	x1, [sp, #16]
1000031c8: f90007e2    	str	x2, [sp, #8]
1000031cc: f85f83a0    	ldur	x0, [x29, #-8]
1000031d0: f9400be1    	ldr	x1, [sp, #16]
1000031d4: f94007e2    	ldr	x2, [sp, #8]
1000031d8: f9400008    	ldr	x8, [x0]
1000031dc: f9403108    	ldr	x8, [x8, #96]
1000031e0: d63f0100    	blr	x8
1000031e4: a9427bfd    	ldp	x29, x30, [sp, #32]
1000031e8: 9100c3ff    	add	sp, sp, #48
1000031ec: d65f03c0    	ret

00000001000031f0 <__ZNSt3__112basic_stringIcNS_11char_traitsIcEENS_9allocatorIcEEEC1B7v160006Emc>:
1000031f0: d100c3ff    	sub	sp, sp, #48
1000031f4: a9027bfd    	stp	x29, x30, [sp, #32]
1000031f8: 910083fd    	add	x29, sp, #32
1000031fc: f81f83a0    	stur	x0, [x29, #-8]
100003200: f9000be1    	str	x1, [sp, #16]
100003204: 39003fe2    	strb	w2, [sp, #15]
100003208: f85f83a0    	ldur	x0, [x29, #-8]
10000320c: f90003e0    	str	x0, [sp]
100003210: f9400be1    	ldr	x1, [sp, #16]
100003214: 39c03fe2    	ldrsb	w2, [sp, #15]
100003218: 9400001a    	bl	0x100003280 <__ZNSt3__112basic_stringIcNS_11char_traitsIcEENS_9allocatorIcEEEC2B7v160006Emc>
10000321c: f94003e0    	ldr	x0, [sp]
100003220: a9427bfd    	ldp	x29, x30, [sp, #32]
100003224: 9100c3ff    	add	sp, sp, #48
100003228: d65f03c0    	ret

000000010000322c <__ZNKSt3__112basic_stringIcNS_11char_traitsIcEENS_9allocatorIcEEE4dataB7v160006Ev>:
10000322c: d10083ff    	sub	sp, sp, #32
100003230: a9017bfd    	stp	x29, x30, [sp, #16]
100003234: 910043fd    	add	x29, sp, #16
100003238: f90007e0    	str	x0, [sp, #8]
10000323c: f94007e0    	ldr	x0, [sp, #8]
100003240: 9400006c    	bl	0x1000033f0 <__ZNKSt3__112basic_stringIcNS_11char_traitsIcEENS_9allocatorIcEEE13__get_pointerB7v160006Ev>
100003244: 94000066    	bl	0x1000033dc <__ZNSt3__112__to_addressB7v160006IKcEEPT_S3_>
100003248: a9417bfd    	ldp	x29, x30, [sp, #16]
10000324c: 910083ff    	add	sp, sp, #32
100003250: d65f03c0    	ret

0000000100003254 <__ZNSt3__18ios_base5widthB7v160006El>:
100003254: d10083ff    	sub	sp, sp, #32
100003258: f9000fe0    	str	x0, [sp, #24]
10000325c: f9000be1    	str	x1, [sp, #16]
100003260: f9400fe9    	ldr	x9, [sp, #24]
100003264: f9400d28    	ldr	x8, [x9, #24]
100003268: f90007e8    	str	x8, [sp, #8]
10000326c: f9400be8    	ldr	x8, [sp, #16]
100003270: f9000d28    	str	x8, [x9, #24]
100003274: f94007e0    	ldr	x0, [sp, #8]
100003278: 910083ff    	add	sp, sp, #32
10000327c: d65f03c0    	ret

0000000100003280 <__ZNSt3__112basic_stringIcNS_11char_traitsIcEENS_9allocatorIcEEEC2B7v160006Emc>:
100003280: d100c3ff    	sub	sp, sp, #48
100003284: a9027bfd    	stp	x29, x30, [sp, #32]
100003288: 910083fd    	add	x29, sp, #32
10000328c: f81f83a0    	stur	x0, [x29, #-8]
100003290: f9000be1    	str	x1, [sp, #16]
100003294: 39003fe2    	strb	w2, [sp, #15]
100003298: f85f83a0    	ldur	x0, [x29, #-8]
10000329c: f90003e0    	str	x0, [sp]
1000032a0: 91003be1    	add	x1, sp, #14
1000032a4: 910037e2    	add	x2, sp, #13
1000032a8: 9400000b    	bl	0x1000032d4 <__ZNSt3__117__compressed_pairINS_12basic_stringIcNS_11char_traitsIcEENS_9allocatorIcEEE5__repES5_EC1B7v160006INS_18__default_init_tagESA_EEOT_OT0_>
1000032ac: f94003e0    	ldr	x0, [sp]
1000032b0: f9400be1    	ldr	x1, [sp, #16]
1000032b4: 39c03fe2    	ldrsb	w2, [sp, #15]
1000032b8: 94000229    	bl	0x100003b5c <_strlen+0x100003b5c>
1000032bc: f94003e0    	ldr	x0, [sp]
1000032c0: 94000014    	bl	0x100003310 <__ZNSt3__119__debug_db_insert_cB7v160006INS_12basic_stringIcNS_11char_traitsIcEENS_9allocatorIcEEEEEEvPT_>
1000032c4: f94003e0    	ldr	x0, [sp]
1000032c8: a9427bfd    	ldp	x29, x30, [sp, #32]
1000032cc: 9100c3ff    	add	sp, sp, #48
1000032d0: d65f03c0    	ret

00000001000032d4 <__ZNSt3__117__compressed_pairINS_12basic_stringIcNS_11char_traitsIcEENS_9allocatorIcEEE5__repES5_EC1B7v160006INS_18__default_init_tagESA_EEOT_OT0_>:
1000032d4: d100c3ff    	sub	sp, sp, #48
1000032d8: a9027bfd    	stp	x29, x30, [sp, #32]
1000032dc: 910083fd    	add	x29, sp, #32
1000032e0: f81f83a0    	stur	x0, [x29, #-8]
1000032e4: f9000be1    	str	x1, [sp, #16]
1000032e8: f90007e2    	str	x2, [sp, #8]
1000032ec: f85f83a0    	ldur	x0, [x29, #-8]
1000032f0: f90003e0    	str	x0, [sp]
1000032f4: f9400be1    	ldr	x1, [sp, #16]
1000032f8: f94007e2    	ldr	x2, [sp, #8]
1000032fc: 94000009    	bl	0x100003320 <__ZNSt3__117__compressed_pairINS_12basic_stringIcNS_11char_traitsIcEENS_9allocatorIcEEE5__repES5_EC2B7v160006INS_18__default_init_tagESA_EEOT_OT0_>
100003300: f94003e0    	ldr	x0, [sp]
100003304: a9427bfd    	ldp	x29, x30, [sp, #32]
100003308: 9100c3ff    	add	sp, sp, #48
10000330c: d65f03c0    	ret

0000000100003310 <__ZNSt3__119__debug_db_insert_cB7v160006INS_12basic_stringIcNS_11char_traitsIcEENS_9allocatorIcEEEEEEvPT_>:
100003310: d10043ff    	sub	sp, sp, #16
100003314: f90007e0    	str	x0, [sp, #8]
100003318: 910043ff    	add	sp, sp, #16
10000331c: d65f03c0    	ret

0000000100003320 <__ZNSt3__117__compressed_pairINS_12basic_stringIcNS_11char_traitsIcEENS_9allocatorIcEEE5__repES5_EC2B7v160006INS_18__default_init_tagESA_EEOT_OT0_>:
100003320: d10103ff    	sub	sp, sp, #64
100003324: a9037bfd    	stp	x29, x30, [sp, #48]
100003328: 9100c3fd    	add	x29, sp, #48
10000332c: f81f83a0    	stur	x0, [x29, #-8]
100003330: f81f03a1    	stur	x1, [x29, #-16]
100003334: f9000fe2    	str	x2, [sp, #24]
100003338: f85f83a0    	ldur	x0, [x29, #-8]
10000333c: f90007e0    	str	x0, [sp, #8]
100003340: 94000007    	bl	0x10000335c <__ZNSt3__122__compressed_pair_elemINS_12basic_stringIcNS_11char_traitsIcEENS_9allocatorIcEEE5__repELi0ELb0EEC2B7v160006ENS_18__default_init_tagE>
100003344: f94007e0    	ldr	x0, [sp, #8]
100003348: 9400000a    	bl	0x100003370 <__ZNSt3__122__compressed_pair_elemINS_9allocatorIcEELi1ELb1EEC2B7v160006ENS_18__default_init_tagE>
10000334c: f94007e0    	ldr	x0, [sp, #8]
100003350: a9437bfd    	ldp	x29, x30, [sp, #48]
100003354: 910103ff    	add	sp, sp, #64
100003358: d65f03c0    	ret

000000010000335c <__ZNSt3__122__compressed_pair_elemINS_12basic_stringIcNS_11char_traitsIcEENS_9allocatorIcEEE5__repELi0ELb0EEC2B7v160006ENS_18__default_init_tagE>:
10000335c: d10043ff    	sub	sp, sp, #16
100003360: f90003e0    	str	x0, [sp]
100003364: f94003e0    	ldr	x0, [sp]
100003368: 910043ff    	add	sp, sp, #16
10000336c: d65f03c0    	ret

0000000100003370 <__ZNSt3__122__compressed_pair_elemINS_9allocatorIcEELi1ELb1EEC2B7v160006ENS_18__default_init_tagE>:
100003370: d100c3ff    	sub	sp, sp, #48
100003374: a9027bfd    	stp	x29, x30, [sp, #32]
100003378: 910083fd    	add	x29, sp, #32
10000337c: f9000be0    	str	x0, [sp, #16]
100003380: f9400be0    	ldr	x0, [sp, #16]
100003384: f90007e0    	str	x0, [sp, #8]
100003388: 94000005    	bl	0x10000339c <__ZNSt3__19allocatorIcEC2B7v160006Ev>
10000338c: f94007e0    	ldr	x0, [sp, #8]
100003390: a9427bfd    	ldp	x29, x30, [sp, #32]
100003394: 9100c3ff    	add	sp, sp, #48
100003398: d65f03c0    	ret

000000010000339c <__ZNSt3__19allocatorIcEC2B7v160006Ev>:
10000339c: d10083ff    	sub	sp, sp, #32
1000033a0: a9017bfd    	stp	x29, x30, [sp, #16]
1000033a4: 910043fd    	add	x29, sp, #16
1000033a8: f90007e0    	str	x0, [sp, #8]
1000033ac: f94007e0    	ldr	x0, [sp, #8]
1000033b0: f90003e0    	str	x0, [sp]
1000033b4: 94000005    	bl	0x1000033c8 <__ZNSt3__116__non_trivial_ifILb1ENS_9allocatorIcEEEC2B7v160006Ev>
1000033b8: f94003e0    	ldr	x0, [sp]
1000033bc: a9417bfd    	ldp	x29, x30, [sp, #16]
1000033c0: 910083ff    	add	sp, sp, #32
1000033c4: d65f03c0    	ret

00000001000033c8 <__ZNSt3__116__non_trivial_ifILb1ENS_9allocatorIcEEEC2B7v160006Ev>:
1000033c8: d10043ff    	sub	sp, sp, #16
1000033cc: f90007e0    	str	x0, [sp, #8]
1000033d0: f94007e0    	ldr	x0, [sp, #8]
1000033d4: 910043ff    	add	sp, sp, #16
1000033d8: d65f03c0    	ret

00000001000033dc <__ZNSt3__112__to_addressB7v160006IKcEEPT_S3_>:
1000033dc: d10043ff    	sub	sp, sp, #16
1000033e0: f90007e0    	str	x0, [sp, #8]
1000033e4: f94007e0    	ldr	x0, [sp, #8]
1000033e8: 910043ff    	add	sp, sp, #16
1000033ec: d65f03c0    	ret

00000001000033f0 <__ZNKSt3__112basic_stringIcNS_11char_traitsIcEENS_9allocatorIcEEE13__get_pointerB7v160006Ev>:
1000033f0: d100c3ff    	sub	sp, sp, #48
1000033f4: a9027bfd    	stp	x29, x30, [sp, #32]
1000033f8: 910083fd    	add	x29, sp, #32
1000033fc: f81f83a0    	stur	x0, [x29, #-8]
100003400: f85f83a0    	ldur	x0, [x29, #-8]
100003404: f9000be0    	str	x0, [sp, #16]
100003408: 9400000f    	bl	0x100003444 <__ZNKSt3__112basic_stringIcNS_11char_traitsIcEENS_9allocatorIcEEE9__is_longB7v160006Ev>
10000340c: 360000c0    	tbz	w0, #0, 0x100003424 <__ZNKSt3__112basic_stringIcNS_11char_traitsIcEENS_9allocatorIcEEE13__get_pointerB7v160006Ev+0x34>
100003410: 14000001    	b	0x100003414 <__ZNKSt3__112basic_stringIcNS_11char_traitsIcEENS_9allocatorIcEEE13__get_pointerB7v160006Ev+0x24>
100003414: f9400be0    	ldr	x0, [sp, #16]
100003418: 94000028    	bl	0x1000034b8 <__ZNKSt3__112basic_stringIcNS_11char_traitsIcEENS_9allocatorIcEEE18__get_long_pointerB7v160006Ev>
10000341c: f90007e0    	str	x0, [sp, #8]
100003420: 14000005    	b	0x100003434 <__ZNKSt3__112basic_stringIcNS_11char_traitsIcEENS_9allocatorIcEEE13__get_pointerB7v160006Ev+0x44>
100003424: f9400be0    	ldr	x0, [sp, #16]
100003428: 9400002e    	bl	0x1000034e0 <__ZNKSt3__112basic_stringIcNS_11char_traitsIcEENS_9allocatorIcEEE19__get_short_pointerB7v160006Ev>
10000342c: f90007e0    	str	x0, [sp, #8]
100003430: 14000001    	b	0x100003434 <__ZNKSt3__112basic_stringIcNS_11char_traitsIcEENS_9allocatorIcEEE13__get_pointerB7v160006Ev+0x44>
100003434: f94007e0    	ldr	x0, [sp, #8]
100003438: a9427bfd    	ldp	x29, x30, [sp, #32]
10000343c: 9100c3ff    	add	sp, sp, #48
100003440: d65f03c0    	ret

0000000100003444 <__ZNKSt3__112basic_stringIcNS_11char_traitsIcEENS_9allocatorIcEEE9__is_longB7v160006Ev>:
100003444: d100c3ff    	sub	sp, sp, #48
100003448: a9027bfd    	stp	x29, x30, [sp, #32]
10000344c: 910083fd    	add	x29, sp, #32
100003450: f9000be0    	str	x0, [sp, #16]
100003454: f9400be8    	ldr	x8, [sp, #16]
100003458: f90007e8    	str	x8, [sp, #8]
10000345c: 9400002b    	bl	0x100003508 <__ZNSt3__130__libcpp_is_constant_evaluatedB7v160006Ev>
100003460: 360000e0    	tbz	w0, #0, 0x10000347c <__ZNKSt3__112basic_stringIcNS_11char_traitsIcEENS_9allocatorIcEEE9__is_longB7v160006Ev+0x38>
100003464: 14000001    	b	0x100003468 <__ZNKSt3__112basic_stringIcNS_11char_traitsIcEENS_9allocatorIcEEE9__is_longB7v160006Ev+0x24>
100003468: 52800028    	mov	w8, #1
10000346c: 12000108    	and	w8, w8, #0x1
100003470: 12000108    	and	w8, w8, #0x1
100003474: 381ff3a8    	sturb	w8, [x29, #-1]
100003478: 1400000b    	b	0x1000034a4 <__ZNKSt3__112basic_stringIcNS_11char_traitsIcEENS_9allocatorIcEEE9__is_longB7v160006Ev+0x60>
10000347c: f94007e0    	ldr	x0, [sp, #8]
100003480: 94000025    	bl	0x100003514 <__ZNKSt3__117__compressed_pairINS_12basic_stringIcNS_11char_traitsIcEENS_9allocatorIcEEE5__repES5_E5firstB7v160006Ev>
100003484: 39405c08    	ldrb	w8, [x0, #23]
100003488: 53077d08    	lsr	w8, w8, #7
10000348c: 72001d08    	ands	w8, w8, #0xff
100003490: 1a9f07e8    	cset	w8, ne
100003494: 12000108    	and	w8, w8, #0x1
100003498: 12000108    	and	w8, w8, #0x1
10000349c: 381ff3a8    	sturb	w8, [x29, #-1]
1000034a0: 14000001    	b	0x1000034a4 <__ZNKSt3__112basic_stringIcNS_11char_traitsIcEENS_9allocatorIcEEE9__is_longB7v160006Ev+0x60>
1000034a4: 385ff3a8    	ldurb	w8, [x29, #-1]
1000034a8: 12000100    	and	w0, w8, #0x1
1000034ac: a9427bfd    	ldp	x29, x30, [sp, #32]
1000034b0: 9100c3ff    	add	sp, sp, #48
1000034b4: d65f03c0    	ret

00000001000034b8 <__ZNKSt3__112basic_stringIcNS_11char_traitsIcEENS_9allocatorIcEEE18__get_long_pointerB7v160006Ev>:
1000034b8: d10083ff    	sub	sp, sp, #32
1000034bc: a9017bfd    	stp	x29, x30, [sp, #16]
1000034c0: 910043fd    	add	x29, sp, #16
1000034c4: f90007e0    	str	x0, [sp, #8]
1000034c8: f94007e0    	ldr	x0, [sp, #8]
1000034cc: 94000012    	bl	0x100003514 <__ZNKSt3__117__compressed_pairINS_12basic_stringIcNS_11char_traitsIcEENS_9allocatorIcEEE5__repES5_E5firstB7v160006Ev>
1000034d0: f9400000    	ldr	x0, [x0]
1000034d4: a9417bfd    	ldp	x29, x30, [sp, #16]
1000034d8: 910083ff    	add	sp, sp, #32
1000034dc: d65f03c0    	ret

00000001000034e0 <__ZNKSt3__112basic_stringIcNS_11char_traitsIcEENS_9allocatorIcEEE19__get_short_pointerB7v160006Ev>:
1000034e0: d10083ff    	sub	sp, sp, #32
1000034e4: a9017bfd    	stp	x29, x30, [sp, #16]
1000034e8: 910043fd    	add	x29, sp, #16
1000034ec: f90007e0    	str	x0, [sp, #8]
1000034f0: f94007e0    	ldr	x0, [sp, #8]
1000034f4: 94000008    	bl	0x100003514 <__ZNKSt3__117__compressed_pairINS_12basic_stringIcNS_11char_traitsIcEENS_9allocatorIcEEE5__repES5_E5firstB7v160006Ev>
1000034f8: 94000015    	bl	0x10000354c <__ZNSt3__114pointer_traitsIPKcE10pointer_toB7v160006ERS1_>
1000034fc: a9417bfd    	ldp	x29, x30, [sp, #16]
100003500: 910083ff    	add	sp, sp, #32
100003504: d65f03c0    	ret

0000000100003508 <__ZNSt3__130__libcpp_is_constant_evaluatedB7v160006Ev>:
100003508: 52800008    	mov	w8, #0
10000350c: 12000100    	and	w0, w8, #0x1
100003510: d65f03c0    	ret

0000000100003514 <__ZNKSt3__117__compressed_pairINS_12basic_stringIcNS_11char_traitsIcEENS_9allocatorIcEEE5__repES5_E5firstB7v160006Ev>:
100003514: d10083ff    	sub	sp, sp, #32
100003518: a9017bfd    	stp	x29, x30, [sp, #16]
10000351c: 910043fd    	add	x29, sp, #16
100003520: f90007e0    	str	x0, [sp, #8]
100003524: f94007e0    	ldr	x0, [sp, #8]
100003528: 94000004    	bl	0x100003538 <__ZNKSt3__122__compressed_pair_elemINS_12basic_stringIcNS_11char_traitsIcEENS_9allocatorIcEEE5__repELi0ELb0EE5__getB7v160006Ev>
10000352c: a9417bfd    	ldp	x29, x30, [sp, #16]
100003530: 910083ff    	add	sp, sp, #32
100003534: d65f03c0    	ret

0000000100003538 <__ZNKSt3__122__compressed_pair_elemINS_12basic_stringIcNS_11char_traitsIcEENS_9allocatorIcEEE5__repELi0ELb0EE5__getB7v160006Ev>:
100003538: d10043ff    	sub	sp, sp, #16
10000353c: f90007e0    	str	x0, [sp, #8]
100003540: f94007e0    	ldr	x0, [sp, #8]
100003544: 910043ff    	add	sp, sp, #16
100003548: d65f03c0    	ret

000000010000354c <__ZNSt3__114pointer_traitsIPKcE10pointer_toB7v160006ERS1_>:
10000354c: d10043ff    	sub	sp, sp, #16
100003550: f90007e0    	str	x0, [sp, #8]
100003554: f94007e0    	ldr	x0, [sp, #8]
100003558: 910043ff    	add	sp, sp, #16
10000355c: d65f03c0    	ret

0000000100003560 <__ZNSt3__119ostreambuf_iteratorIcNS_11char_traitsIcEEEC2B7v160006ERNS_13basic_ostreamIcS2_EE>:
100003560: d10103ff    	sub	sp, sp, #64
100003564: a9037bfd    	stp	x29, x30, [sp, #48]
100003568: 9100c3fd    	add	x29, sp, #48
10000356c: f81f83a0    	stur	x0, [x29, #-8]
100003570: f81f03a1    	stur	x1, [x29, #-16]
100003574: f85f83a8    	ldur	x8, [x29, #-8]
100003578: f90003e8    	str	x8, [sp]
10000357c: f85f03a8    	ldur	x8, [x29, #-16]
100003580: f9400109    	ldr	x9, [x8]
100003584: f85e8129    	ldur	x9, [x9, #-24]
100003588: 8b090100    	add	x0, x8, x9
10000358c: 9400000f    	bl	0x1000035c8 <__ZNKSt3__19basic_iosIcNS_11char_traitsIcEEE5rdbufB7v160006Ev>
100003590: f90007e0    	str	x0, [sp, #8]
100003594: 14000001    	b	0x100003598 <__ZNSt3__119ostreambuf_iteratorIcNS_11char_traitsIcEEEC2B7v160006ERNS_13basic_ostreamIcS2_EE+0x38>
100003598: f94003e0    	ldr	x0, [sp]
10000359c: f94007e8    	ldr	x8, [sp, #8]
1000035a0: f9000008    	str	x8, [x0]
1000035a4: a9437bfd    	ldp	x29, x30, [sp, #48]
1000035a8: 910103ff    	add	sp, sp, #64
1000035ac: d65f03c0    	ret
1000035b0: f9000fe0    	str	x0, [sp, #24]
1000035b4: aa0103e8    	mov	x8, x1
1000035b8: b90017e8    	str	w8, [sp, #20]
1000035bc: 14000001    	b	0x1000035c0 <__ZNSt3__119ostreambuf_iteratorIcNS_11char_traitsIcEEEC2B7v160006ERNS_13basic_ostreamIcS2_EE+0x60>
1000035c0: f9400fe0    	ldr	x0, [sp, #24]
1000035c4: 9400018d    	bl	0x100003bf8 <_strlen+0x100003bf8>

00000001000035c8 <__ZNKSt3__19basic_iosIcNS_11char_traitsIcEEE5rdbufB7v160006Ev>:
1000035c8: d10083ff    	sub	sp, sp, #32
1000035cc: a9017bfd    	stp	x29, x30, [sp, #16]
1000035d0: 910043fd    	add	x29, sp, #16
1000035d4: f90007e0    	str	x0, [sp, #8]
1000035d8: f94007e0    	ldr	x0, [sp, #8]
1000035dc: 94000004    	bl	0x1000035ec <__ZNKSt3__18ios_base5rdbufB7v160006Ev>
1000035e0: a9417bfd    	ldp	x29, x30, [sp, #16]
1000035e4: 910083ff    	add	sp, sp, #32
1000035e8: d65f03c0    	ret

00000001000035ec <__ZNKSt3__18ios_base5rdbufB7v160006Ev>:
1000035ec: d10043ff    	sub	sp, sp, #16
1000035f0: f90007e0    	str	x0, [sp, #8]
1000035f4: f94007e8    	ldr	x8, [sp, #8]
1000035f8: f9401500    	ldr	x0, [x8, #40]
1000035fc: 910043ff    	add	sp, sp, #16
100003600: d65f03c0    	ret

0000000100003604 <__ZNSt3__111char_traitsIcE11eq_int_typeEii>:
100003604: d10043ff    	sub	sp, sp, #16
100003608: b9000fe0    	str	w0, [sp, #12]
10000360c: b9000be1    	str	w1, [sp, #8]
100003610: b9400fe8    	ldr	w8, [sp, #12]
100003614: b9400be9    	ldr	w9, [sp, #8]
100003618: 6b090108    	subs	w8, w8, w9
10000361c: 1a9f17e8    	cset	w8, eq
100003620: 12000100    	and	w0, w8, #0x1
100003624: 910043ff    	add	sp, sp, #16
100003628: d65f03c0    	ret

000000010000362c <__ZNSt3__111char_traitsIcE3eofEv>:
10000362c: 12800000    	mov	w0, #-1
100003630: d65f03c0    	ret

0000000100003634 <__ZNKSt3__19basic_iosIcNS_11char_traitsIcEEE5widenB7v160006Ec>:
100003634: d10143ff    	sub	sp, sp, #80
100003638: a9047bfd    	stp	x29, x30, [sp, #64]
10000363c: 910103fd    	add	x29, sp, #64
100003640: f81f83a0    	stur	x0, [x29, #-8]
100003644: 381f73a1    	sturb	w1, [x29, #-9]
100003648: f85f83a0    	ldur	x0, [x29, #-8]
10000364c: d10063a8    	sub	x8, x29, #24
100003650: f90007e8    	str	x8, [sp, #8]
100003654: 94000136    	bl	0x100003b2c <_strlen+0x100003b2c>
100003658: f94007e0    	ldr	x0, [sp, #8]
10000365c: 94000019    	bl	0x1000036c0 <__ZNSt3__19use_facetB7v160006INS_5ctypeIcEEEERKT_RKNS_6localeE>
100003660: f9000be0    	str	x0, [sp, #16]
100003664: 14000001    	b	0x100003668 <__ZNKSt3__19basic_iosIcNS_11char_traitsIcEEE5widenB7v160006Ec+0x34>
100003668: f9400be0    	ldr	x0, [sp, #16]
10000366c: 38df73a1    	ldursb	w1, [x29, #-9]
100003670: 9400001f    	bl	0x1000036ec <__ZNKSt3__15ctypeIcE5widenB7v160006Ec>
100003674: b90007e0    	str	w0, [sp, #4]
100003678: 14000001    	b	0x10000367c <__ZNKSt3__19basic_iosIcNS_11char_traitsIcEEE5widenB7v160006Ec+0x48>
10000367c: d10063a0    	sub	x0, x29, #24
100003680: 9400014f    	bl	0x100003bbc <_strlen+0x100003bbc>
100003684: b94007e8    	ldr	w8, [sp, #4]
100003688: 13001d00    	sxtb	w0, w8
10000368c: a9447bfd    	ldp	x29, x30, [sp, #64]
100003690: 910143ff    	add	sp, sp, #80
100003694: d65f03c0    	ret
100003698: f90013e0    	str	x0, [sp, #32]
10000369c: aa0103e8    	mov	x8, x1
1000036a0: b9001fe8    	str	w8, [sp, #28]
1000036a4: d10063a0    	sub	x0, x29, #24
1000036a8: 94000145    	bl	0x100003bbc <_strlen+0x100003bbc>
1000036ac: 14000001    	b	0x1000036b0 <__ZNKSt3__19basic_iosIcNS_11char_traitsIcEEE5widenB7v160006Ec+0x7c>
1000036b0: 14000001    	b	0x1000036b4 <__ZNKSt3__19basic_iosIcNS_11char_traitsIcEEE5widenB7v160006Ec+0x80>
1000036b4: f94013e0    	ldr	x0, [sp, #32]
1000036b8: 94000117    	bl	0x100003b14 <_strlen+0x100003b14>
1000036bc: 97fffeb5    	bl	0x100003190 <___clang_call_terminate>

00000001000036c0 <__ZNSt3__19use_facetB7v160006INS_5ctypeIcEEEERKT_RKNS_6localeE>:
1000036c0: d10083ff    	sub	sp, sp, #32
1000036c4: a9017bfd    	stp	x29, x30, [sp, #16]
1000036c8: 910043fd    	add	x29, sp, #16
1000036cc: f90007e0    	str	x0, [sp, #8]
1000036d0: f94007e0    	ldr	x0, [sp, #8]
1000036d4: b0000001    	adrp	x1, 0x100004000 <__ZNSt3__19use_facetB7v160006INS_5ctypeIcEEEERKT_RKNS_6localeE+0x18>
1000036d8: f9403c21    	ldr	x1, [x1, #120]
1000036dc: 94000111    	bl	0x100003b20 <_strlen+0x100003b20>
1000036e0: a9417bfd    	ldp	x29, x30, [sp, #16]
1000036e4: 910083ff    	add	sp, sp, #32
1000036e8: d65f03c0    	ret

00000001000036ec <__ZNKSt3__15ctypeIcE5widenB7v160006Ec>:
1000036ec: d10083ff    	sub	sp, sp, #32
1000036f0: a9017bfd    	stp	x29, x30, [sp, #16]
1000036f4: 910043fd    	add	x29, sp, #16
1000036f8: f90007e0    	str	x0, [sp, #8]
1000036fc: 39001fe1    	strb	w1, [sp, #7]
100003700: f94007e0    	ldr	x0, [sp, #8]
100003704: 39c01fe1    	ldrsb	w1, [sp, #7]
100003708: f9400008    	ldr	x8, [x0]
10000370c: f9401d08    	ldr	x8, [x8, #56]
100003710: d63f0100    	blr	x8
100003714: 13001c00    	sxtb	w0, w0
100003718: a9417bfd    	ldp	x29, x30, [sp, #16]
10000371c: 910083ff    	add	sp, sp, #32
100003720: d65f03c0    	ret

0000000100003724 <__ZNSt3__18ios_base8setstateB7v160006Ej>:
100003724: d10083ff    	sub	sp, sp, #32
100003728: a9017bfd    	stp	x29, x30, [sp, #16]
10000372c: 910043fd    	add	x29, sp, #16
100003730: f90007e0    	str	x0, [sp, #8]
100003734: b90007e1    	str	w1, [sp, #4]
100003738: f94007e0    	ldr	x0, [sp, #8]
10000373c: b9402008    	ldr	w8, [x0, #32]
100003740: b94007e9    	ldr	w9, [sp, #4]
100003744: 2a090101    	orr	w1, w8, w9
100003748: 94000123    	bl	0x100003bd4 <_strlen+0x100003bd4>
10000374c: a9417bfd    	ldp	x29, x30, [sp, #16]
100003750: 910083ff    	add	sp, sp, #32
100003754: d65f03c0    	ret

0000000100003758 <__ZNSt3__118__constexpr_strlenB7v160006EPKc>:
100003758: d10083ff    	sub	sp, sp, #32
10000375c: a9017bfd    	stp	x29, x30, [sp, #16]
100003760: 910043fd    	add	x29, sp, #16
100003764: f90007e0    	str	x0, [sp, #8]
100003768: f94007e0    	ldr	x0, [sp, #8]
10000376c: 94000147    	bl	0x100003c88 <_strlen+0x100003c88>
100003770: a9417bfd    	ldp	x29, x30, [sp, #16]
100003774: 910083ff    	add	sp, sp, #32
100003778: d65f03c0    	ret

000000010000377c <__Z19init_hot_fix_signalv>:
10000377c: d10083ff    	sub	sp, sp, #32
100003780: a9017bfd    	stp	x29, x30, [sp, #16]
100003784: 910043fd    	add	x29, sp, #16
100003788: 528003c0    	mov	w0, #30
10000378c: 90000001    	adrp	x1, 0x100003000 <__Z19init_hot_fix_signalv+0x10>
100003790: 911f3021    	add	x1, x1, #1996
100003794: 94000137    	bl	0x100003c70 <_strlen+0x100003c70>
100003798: b1000408    	adds	x8, x0, #1
10000379c: 1a9f07e8    	cset	w8, ne
1000037a0: 370000a8    	tbnz	w8, #0, 0x1000037b4 <__Z19init_hot_fix_signalv+0x38>
1000037a4: 14000001    	b	0x1000037a8 <__Z19init_hot_fix_signalv+0x2c>
1000037a8: 12800008    	mov	w8, #-1
1000037ac: b81fc3a8    	stur	w8, [x29, #-4]
1000037b0: 14000003    	b	0x1000037bc <__Z19init_hot_fix_signalv+0x40>
1000037b4: b81fc3bf    	stur	wzr, [x29, #-4]
1000037b8: 14000001    	b	0x1000037bc <__Z19init_hot_fix_signalv+0x40>
1000037bc: b85fc3a0    	ldur	w0, [x29, #-4]
1000037c0: a9417bfd    	ldp	x29, x30, [sp, #16]
1000037c4: 910083ff    	add	sp, sp, #32
1000037c8: d65f03c0    	ret

00000001000037cc <__ZL6do_fixi>:
1000037cc: d10183ff    	sub	sp, sp, #96
1000037d0: a9057bfd    	stp	x29, x30, [sp, #80]
1000037d4: 910143fd    	add	x29, sp, #80
1000037d8: aa0003e8    	mov	x8, x0
1000037dc: b0000000    	adrp	x0, 0x100004000 <__ZL6do_fixi+0x14>
1000037e0: f9403800    	ldr	x0, [x0, #112]
1000037e4: f9000be0    	str	x0, [sp, #16]
1000037e8: b0000009    	adrp	x9, 0x100004000 <__ZL6do_fixi+0x20>
1000037ec: f9406929    	ldr	x9, [x9, #208]
1000037f0: f9400129    	ldr	x9, [x9]
1000037f4: f81f83a9    	stur	x9, [x29, #-8]
1000037f8: b81e43a8    	stur	w8, [x29, #-28]
1000037fc: 90000001    	adrp	x1, 0x100003000 <__ZL6do_fixi+0x30>
100003800: 91386821    	add	x1, x1, #3610
100003804: 97fffcc1    	bl	0x100002b08 <__ZNSt3__1lsB7v160006INS_11char_traitsIcEEEERNS_13basic_ostreamIcT_EES6_PKc>
100003808: f0ffffe1    	adrp	x1, 0x100002000 <__ZL6do_fixi+0x38>
10000380c: 912df021    	add	x1, x1, #2940
100003810: 97fffcd0    	bl	0x100002b50 <__ZNSt3__113basic_ostreamIcNS_11char_traitsIcEEElsB7v160006EPFRS3_S4_E>
100003814: 90000008    	adrp	x8, 0x100003000 <__ZL6do_fixi+0x48>
100003818: 91388508    	add	x8, x8, #3617
10000381c: f9400109    	ldr	x9, [x8]
100003820: d10063a0    	sub	x0, x29, #24
100003824: f81e83a9    	stur	x9, [x29, #-24]
100003828: b8407108    	ldur	w8, [x8, #7]
10000382c: b8007008    	stur	w8, [x0, #7]
100003830: 52800041    	mov	w1, #2
100003834: 94000103    	bl	0x100003c40 <_strlen+0x100003c40>
100003838: f90017e0    	str	x0, [sp, #40]
10000383c: f94017e9    	ldr	x9, [sp, #40]
100003840: d2800008    	mov	x8, #0
100003844: eb090108    	subs	x8, x8, x9
100003848: 1a9f07e8    	cset	w8, ne
10000384c: 37000268    	tbnz	w8, #0, 0x100003898 <__ZL6do_fixi+0xcc>
100003850: 14000001    	b	0x100003854 <__ZL6do_fixi+0x88>
100003854: 940000f8    	bl	0x100003c34 <_strlen+0x100003c34>
100003858: aa0003e1    	mov	x1, x0
10000385c: f9400be0    	ldr	x0, [sp, #16]
100003860: 97fffcaa    	bl	0x100002b08 <__ZNSt3__1lsB7v160006INS_11char_traitsIcEEEERNS_13basic_ostreamIcT_EES6_PKc>
100003864: f0ffffe1    	adrp	x1, 0x100002000 <__ZL6do_fixi+0x94>
100003868: 912df021    	add	x1, x1, #2940
10000386c: f90007e1    	str	x1, [sp, #8]
100003870: 97fffcb8    	bl	0x100002b50 <__ZNSt3__113basic_ostreamIcNS_11char_traitsIcEEElsB7v160006EPFRS3_S4_E>
100003874: f9400be0    	ldr	x0, [sp, #16]
100003878: 90000001    	adrp	x1, 0x100003000 <__ZL6do_fixi+0xac>
10000387c: 9138b021    	add	x1, x1, #3628
100003880: 97fffca2    	bl	0x100002b08 <__ZNSt3__1lsB7v160006INS_11char_traitsIcEEEERNS_13basic_ostreamIcT_EES6_PKc>
100003884: d10063a1    	sub	x1, x29, #24
100003888: 97fffca0    	bl	0x100002b08 <__ZNSt3__1lsB7v160006INS_11char_traitsIcEEEERNS_13basic_ostreamIcT_EES6_PKc>
10000388c: f94007e1    	ldr	x1, [sp, #8]
100003890: 97fffcb0    	bl	0x100002b50 <__ZNSt3__113basic_ostreamIcNS_11char_traitsIcEEElsB7v160006EPFRS3_S4_E>
100003894: 14000032    	b	0x10000395c <__ZL6do_fixi+0x190>
100003898: f94017e0    	ldr	x0, [sp, #40]
10000389c: 90000001    	adrp	x1, 0x100003000 <__ZL6do_fixi+0xd0>
1000038a0: 91390c21    	add	x1, x1, #3651
1000038a4: 940000ea    	bl	0x100003c4c <_strlen+0x100003c4c>
1000038a8: aa0003e8    	mov	x8, x0
1000038ac: f9400be0    	ldr	x0, [sp, #16]
1000038b0: f90013e8    	str	x8, [sp, #32]
1000038b4: 90000001    	adrp	x1, 0x100003000 <__ZL6do_fixi+0xe8>
1000038b8: 91393421    	add	x1, x1, #3661
1000038bc: 97fffc93    	bl	0x100002b08 <__ZNSt3__1lsB7v160006INS_11char_traitsIcEEEERNS_13basic_ostreamIcT_EES6_PKc>
1000038c0: f94013e8    	ldr	x8, [sp, #32]
1000038c4: f9400101    	ldr	x1, [x8]
1000038c8: 940000b7    	bl	0x100003ba4 <_strlen+0x100003ba4>
1000038cc: f0ffffe1    	adrp	x1, 0x100002000 <__ZL6do_fixi+0xfc>
1000038d0: 912df021    	add	x1, x1, #2940
1000038d4: 97fffc9f    	bl	0x100002b50 <__ZNSt3__113basic_ostreamIcNS_11char_traitsIcEEElsB7v160006EPFRS3_S4_E>
1000038d8: f94013e9    	ldr	x9, [sp, #32]
1000038dc: d2800008    	mov	x8, #0
1000038e0: eb090108    	subs	x8, x8, x9
1000038e4: 1a9f07e8    	cset	w8, ne
1000038e8: 37000188    	tbnz	w8, #0, 0x100003918 <__ZL6do_fixi+0x14c>
1000038ec: 14000001    	b	0x1000038f0 <__ZL6do_fixi+0x124>
1000038f0: f9400be0    	ldr	x0, [sp, #16]
1000038f4: 90000001    	adrp	x1, 0x100003000 <__ZL6do_fixi+0x128>
1000038f8: 91396021    	add	x1, x1, #3672
1000038fc: 97fffc83    	bl	0x100002b08 <__ZNSt3__1lsB7v160006INS_11char_traitsIcEEEERNS_13basic_ostreamIcT_EES6_PKc>
100003900: f0ffffe1    	adrp	x1, 0x100002000 <__ZL6do_fixi+0x130>
100003904: 912df021    	add	x1, x1, #2940
100003908: 97fffc92    	bl	0x100002b50 <__ZNSt3__113basic_ostreamIcNS_11char_traitsIcEEElsB7v160006EPFRS3_S4_E>
10000390c: f94017e0    	ldr	x0, [sp, #40]
100003910: 940000c6    	bl	0x100003c28 <_strlen+0x100003c28>
100003914: 14000012    	b	0x10000395c <__ZL6do_fixi+0x190>
100003918: f94013e8    	ldr	x8, [sp, #32]
10000391c: f9400100    	ldr	x0, [x8]
100003920: f0ffffe1    	adrp	x1, 0x100002000 <__ZL6do_fixi+0x150>
100003924: 91297021    	add	x1, x1, #2652
100003928: 94000019    	bl	0x10000398c <__ZL8fix_funcPKvPv>
10000392c: aa0003e8    	mov	x8, x0
100003930: f9400be0    	ldr	x0, [sp, #16]
100003934: b9001fe8    	str	w8, [sp, #28]
100003938: 90000001    	adrp	x1, 0x100003000 <__ZL6do_fixi+0x16c>
10000393c: 9139a821    	add	x1, x1, #3690
100003940: 97fffc72    	bl	0x100002b08 <__ZNSt3__1lsB7v160006INS_11char_traitsIcEEEERNS_13basic_ostreamIcT_EES6_PKc>
100003944: b9401fe1    	ldr	w1, [sp, #28]
100003948: 9400009a    	bl	0x100003bb0 <_strlen+0x100003bb0>
10000394c: f0ffffe1    	adrp	x1, 0x100002000 <__ZL6do_fixi+0x17c>
100003950: 912df021    	add	x1, x1, #2940
100003954: 97fffc7f    	bl	0x100002b50 <__ZNSt3__113basic_ostreamIcNS_11char_traitsIcEEElsB7v160006EPFRS3_S4_E>
100003958: 14000001    	b	0x10000395c <__ZL6do_fixi+0x190>
10000395c: f85f83a9    	ldur	x9, [x29, #-8]
100003960: b0000008    	adrp	x8, 0x100004000 <__ZL6do_fixi+0x198>
100003964: f9406908    	ldr	x8, [x8, #208]
100003968: f9400108    	ldr	x8, [x8]
10000396c: eb090108    	subs	x8, x8, x9
100003970: 1a9f17e8    	cset	w8, eq
100003974: 37000068    	tbnz	w8, #0, 0x100003980 <__ZL6do_fixi+0x1b4>
100003978: 14000001    	b	0x10000397c <__ZL6do_fixi+0x1b0>
10000397c: 940000a8    	bl	0x100003c1c <_strlen+0x100003c1c>
100003980: a9457bfd    	ldp	x29, x30, [sp, #80]
100003984: 910183ff    	add	sp, sp, #96
100003988: d65f03c0    	ret

000000010000398c <__ZL8fix_funcPKvPv>:
10000398c: d10143ff    	sub	sp, sp, #80
100003990: a9047bfd    	stp	x29, x30, [sp, #64]
100003994: 910103fd    	add	x29, sp, #64
100003998: aa0003e8    	mov	x8, x0
10000399c: b0000000    	adrp	x0, 0x100004000 <__ZL8fix_funcPKvPv+0x14>
1000039a0: f9403800    	ldr	x0, [x0, #112]
1000039a4: f90003e0    	str	x0, [sp]
1000039a8: f81f03a8    	stur	x8, [x29, #-16]
1000039ac: f81e83a1    	stur	x1, [x29, #-24]
1000039b0: 90000001    	adrp	x1, 0x100003000 <__ZL8fix_funcPKvPv+0x24>
1000039b4: 9139e821    	add	x1, x1, #3706
1000039b8: 97fffc54    	bl	0x100002b08 <__ZNSt3__1lsB7v160006INS_11char_traitsIcEEEERNS_13basic_ostreamIcT_EES6_PKc>
1000039bc: f0ffffe1    	adrp	x1, 0x100002000 <__ZL8fix_funcPKvPv+0x2c>
1000039c0: 912df021    	add	x1, x1, #2940
1000039c4: 97fffc63    	bl	0x100002b50 <__ZNSt3__113basic_ostreamIcNS_11char_traitsIcEEElsB7v160006EPFRS3_S4_E>
1000039c8: 90000008    	adrp	x8, 0x100003000 <__ZL8fix_funcPKvPv+0x3c>
1000039cc: 913ae508    	add	x8, x8, #3769
1000039d0: 79400108    	ldrh	w8, [x8]
1000039d4: 781e63a8    	sturh	w8, [x29, #-26]
1000039d8: 90000008    	adrp	x8, 0x100003000 <__ZL8fix_funcPKvPv+0x4c>
1000039dc: 913aed08    	add	x8, x8, #3771
1000039e0: 79400108    	ldrh	w8, [x8]
1000039e4: 781e43a8    	sturh	w8, [x29, #-28]
1000039e8: 9400009c    	bl	0x100003c58 <_strlen+0x100003c58>
1000039ec: aa0003e8    	mov	x8, x0
1000039f0: 93407d08    	sxtw	x8, w8
1000039f4: f9000fe8    	str	x8, [sp, #24]
1000039f8: 52800188    	mov	w8, #12
1000039fc: b90017e8    	str	w8, [sp, #20]
100003a00: f85e83a8    	ldur	x8, [x29, #-24]
100003a04: f85e83a9    	ldur	x9, [x29, #-24]
100003a08: f9400feb    	ldr	x11, [sp, #24]
100003a0c: 9acb092a    	udiv	x10, x9, x11
100003a10: 9b0b7d4a    	mul	x10, x10, x11
100003a14: eb0a0129    	subs	x9, x9, x10
100003a18: eb090108    	subs	x8, x8, x9
100003a1c: f90007e8    	str	x8, [sp, #8]
100003a20: f94007e0    	ldr	x0, [sp, #8]
100003a24: f85e83a8    	ldur	x8, [x29, #-24]
100003a28: f94007e9    	ldr	x9, [sp, #8]
100003a2c: eb090108    	subs	x8, x8, x9
100003a30: 91003101    	add	x1, x8, #12
100003a34: 528000e2    	mov	w2, #7
100003a38: 9400008b    	bl	0x100003c64 <_strlen+0x100003c64>
100003a3c: 52800008    	mov	w8, #0
100003a40: 6b000108    	subs	w8, w8, w0
100003a44: 1a9f17e8    	cset	w8, eq
100003a48: 37000228    	tbnz	w8, #0, 0x100003a8c <__ZL8fix_funcPKvPv+0x100>
100003a4c: 14000001    	b	0x100003a50 <__ZL8fix_funcPKvPv+0xc4>
100003a50: f94003e0    	ldr	x0, [sp]
100003a54: 90000001    	adrp	x1, 0x100003000 <__ZL8fix_funcPKvPv+0xc8>
100003a58: 913a2821    	add	x1, x1, #3722
100003a5c: 97fffc2b    	bl	0x100002b08 <__ZNSt3__1lsB7v160006INS_11char_traitsIcEEEERNS_13basic_ostreamIcT_EES6_PKc>
100003a60: 9400006c    	bl	0x100003c10 <_strlen+0x100003c10>
100003a64: aa0003e8    	mov	x8, x0
100003a68: f94003e0    	ldr	x0, [sp]
100003a6c: b9400101    	ldr	w1, [x8]
100003a70: 94000050    	bl	0x100003bb0 <_strlen+0x100003bb0>
100003a74: f0ffffe1    	adrp	x1, 0x100002000 <__ZL8fix_funcPKvPv+0xe4>
100003a78: 912df021    	add	x1, x1, #2940
100003a7c: 97fffc35    	bl	0x100002b50 <__ZNSt3__113basic_ostreamIcNS_11char_traitsIcEEElsB7v160006EPFRS3_S4_E>
100003a80: 12800008    	mov	w8, #-1
100003a84: b81fc3a8    	stur	w8, [x29, #-4]
100003a88: 1400001f    	b	0x100003b04 <__ZL8fix_funcPKvPv+0x178>
100003a8c: f85e83a9    	ldur	x9, [x29, #-24]
100003a90: 785e63a8    	ldurh	w8, [x29, #-26]
100003a94: 79000128    	strh	w8, [x9]
100003a98: f85e83a9    	ldur	x9, [x29, #-24]
100003a9c: f85f03a8    	ldur	x8, [x29, #-16]
100003aa0: f8002128    	stur	x8, [x9, #2]
100003aa4: f85e83a9    	ldur	x9, [x29, #-24]
100003aa8: 785e43a8    	ldurh	w8, [x29, #-28]
100003aac: 79001528    	strh	w8, [x9, #10]
100003ab0: f94007e0    	ldr	x0, [sp, #8]
100003ab4: f85e83a8    	ldur	x8, [x29, #-24]
100003ab8: f94007e9    	ldr	x9, [sp, #8]
100003abc: eb090108    	subs	x8, x8, x9
100003ac0: 91003101    	add	x1, x8, #12
100003ac4: 528000a2    	mov	w2, #5
100003ac8: 94000067    	bl	0x100003c64 <_strlen+0x100003c64>
100003acc: 52800008    	mov	w8, #0
100003ad0: 6b000108    	subs	w8, w8, w0
100003ad4: 1a9f17e8    	cset	w8, eq
100003ad8: 37000128    	tbnz	w8, #0, 0x100003afc <__ZL8fix_funcPKvPv+0x170>
100003adc: 14000001    	b	0x100003ae0 <__ZL8fix_funcPKvPv+0x154>
100003ae0: f94003e0    	ldr	x0, [sp]
100003ae4: 90000001    	adrp	x1, 0x100003000 <__ZL8fix_funcPKvPv+0x158>
100003ae8: 913a8421    	add	x1, x1, #3745
100003aec: 97fffc07    	bl	0x100002b08 <__ZNSt3__1lsB7v160006INS_11char_traitsIcEEEERNS_13basic_ostreamIcT_EES6_PKc>
100003af0: 12800008    	mov	w8, #-1
100003af4: b81fc3a8    	stur	w8, [x29, #-4]
100003af8: 14000003    	b	0x100003b04 <__ZL8fix_funcPKvPv+0x178>
100003afc: b81fc3bf    	stur	wzr, [x29, #-4]
100003b00: 14000001    	b	0x100003b04 <__ZL8fix_funcPKvPv+0x178>
100003b04: b85fc3a0    	ldur	w0, [x29, #-4]
100003b08: a9447bfd    	ldp	x29, x30, [sp, #64]
100003b0c: 910143ff    	add	sp, sp, #80
100003b10: d65f03c0    	ret

Disassembly of section __TEXT,__stubs:

0000000100003b14 <__stubs>:
100003b14: b0000010    	adrp	x16, 0x100004000 <__stubs+0x4>
100003b18: f9400210    	ldr	x16, [x16]
100003b1c: d61f0200    	br	x16
100003b20: b0000010    	adrp	x16, 0x100004000 <__stubs+0x10>
100003b24: f9400610    	ldr	x16, [x16, #8]
100003b28: d61f0200    	br	x16
100003b2c: b0000010    	adrp	x16, 0x100004000 <__stubs+0x1c>
100003b30: f9400a10    	ldr	x16, [x16, #16]
100003b34: d61f0200    	br	x16
100003b38: b0000010    	adrp	x16, 0x100004000 <__stubs+0x28>
100003b3c: f9400e10    	ldr	x16, [x16, #24]
100003b40: d61f0200    	br	x16
100003b44: b0000010    	adrp	x16, 0x100004000 <__stubs+0x34>
100003b48: f9401210    	ldr	x16, [x16, #32]
100003b4c: d61f0200    	br	x16
100003b50: b0000010    	adrp	x16, 0x100004000 <__stubs+0x40>
100003b54: f9401610    	ldr	x16, [x16, #40]
100003b58: d61f0200    	br	x16
100003b5c: b0000010    	adrp	x16, 0x100004000 <__stubs+0x4c>
100003b60: f9401a10    	ldr	x16, [x16, #48]
100003b64: d61f0200    	br	x16
100003b68: b0000010    	adrp	x16, 0x100004000 <__stubs+0x58>
100003b6c: f9401e10    	ldr	x16, [x16, #56]
100003b70: d61f0200    	br	x16
100003b74: b0000010    	adrp	x16, 0x100004000 <__stubs+0x64>
100003b78: f9402210    	ldr	x16, [x16, #64]
100003b7c: d61f0200    	br	x16
100003b80: b0000010    	adrp	x16, 0x100004000 <__stubs+0x70>
100003b84: f9402610    	ldr	x16, [x16, #72]
100003b88: d61f0200    	br	x16
100003b8c: b0000010    	adrp	x16, 0x100004000 <__stubs+0x7c>
100003b90: f9402a10    	ldr	x16, [x16, #80]
100003b94: d61f0200    	br	x16
100003b98: b0000010    	adrp	x16, 0x100004000 <__stubs+0x88>
100003b9c: f9402e10    	ldr	x16, [x16, #88]
100003ba0: d61f0200    	br	x16
100003ba4: b0000010    	adrp	x16, 0x100004000 <__stubs+0x94>
100003ba8: f9403210    	ldr	x16, [x16, #96]
100003bac: d61f0200    	br	x16
100003bb0: b0000010    	adrp	x16, 0x100004000 <__stubs+0xa0>
100003bb4: f9403610    	ldr	x16, [x16, #104]
100003bb8: d61f0200    	br	x16
100003bbc: b0000010    	adrp	x16, 0x100004000 <__stubs+0xac>
100003bc0: f9404210    	ldr	x16, [x16, #128]
100003bc4: d61f0200    	br	x16
100003bc8: b0000010    	adrp	x16, 0x100004000 <__stubs+0xb8>
100003bcc: f9404610    	ldr	x16, [x16, #136]
100003bd0: d61f0200    	br	x16
100003bd4: b0000010    	adrp	x16, 0x100004000 <__stubs+0xc4>
100003bd8: f9404a10    	ldr	x16, [x16, #144]
100003bdc: d61f0200    	br	x16
100003be0: b0000010    	adrp	x16, 0x100004000 <__stubs+0xd0>
100003be4: f9404e10    	ldr	x16, [x16, #152]
100003be8: d61f0200    	br	x16
100003bec: b0000010    	adrp	x16, 0x100004000 <__stubs+0xdc>
100003bf0: f9405210    	ldr	x16, [x16, #160]
100003bf4: d61f0200    	br	x16
100003bf8: b0000010    	adrp	x16, 0x100004000 <__stubs+0xe8>
100003bfc: f9405610    	ldr	x16, [x16, #168]
100003c00: d61f0200    	br	x16
100003c04: b0000010    	adrp	x16, 0x100004000 <__stubs+0xf4>
100003c08: f9405a10    	ldr	x16, [x16, #176]
100003c0c: d61f0200    	br	x16
100003c10: b0000010    	adrp	x16, 0x100004000 <__stubs+0x100>
100003c14: f9405e10    	ldr	x16, [x16, #184]
100003c18: d61f0200    	br	x16
100003c1c: b0000010    	adrp	x16, 0x100004000 <__stubs+0x10c>
100003c20: f9406610    	ldr	x16, [x16, #200]
100003c24: d61f0200    	br	x16
100003c28: b0000010    	adrp	x16, 0x100004000 <__stubs+0x118>
100003c2c: f9406e10    	ldr	x16, [x16, #216]
100003c30: d61f0200    	br	x16
100003c34: b0000010    	adrp	x16, 0x100004000 <__stubs+0x124>
100003c38: f9407210    	ldr	x16, [x16, #224]
100003c3c: d61f0200    	br	x16
100003c40: b0000010    	adrp	x16, 0x100004000 <__stubs+0x130>
100003c44: f9407610    	ldr	x16, [x16, #232]
100003c48: d61f0200    	br	x16
100003c4c: b0000010    	adrp	x16, 0x100004000 <__stubs+0x13c>
100003c50: f9407a10    	ldr	x16, [x16, #240]
100003c54: d61f0200    	br	x16
100003c58: b0000010    	adrp	x16, 0x100004000 <__stubs+0x148>
100003c5c: f9407e10    	ldr	x16, [x16, #248]
100003c60: d61f0200    	br	x16
100003c64: b0000010    	adrp	x16, 0x100004000 <__stubs+0x154>
100003c68: f9408210    	ldr	x16, [x16, #256]
100003c6c: d61f0200    	br	x16
100003c70: b0000010    	adrp	x16, 0x100004000 <__stubs+0x160>
100003c74: f9408610    	ldr	x16, [x16, #264]
100003c78: d61f0200    	br	x16
100003c7c: b0000010    	adrp	x16, 0x100004000 <__stubs+0x16c>
100003c80: f9408a10    	ldr	x16, [x16, #272]
100003c84: d61f0200    	br	x16
100003c88: b0000010    	adrp	x16, 0x100004000 <__stubs+0x178>
100003c8c: f9408e10    	ldr	x16, [x16, #280]
100003c90: d61f0200    	br	x16
